((dp1
I1
(istatistics.SolverStatistics
StatData
p2
(dp3
S'num_alns_to_record_and_cds'
p4
(dp5
S'AC006987.2'
p6
ccopy_reg
_reconstructor
p7
(cstatistics.statistics
RecordStats
p8
c__builtin__
object
p9
NtRp10
(dp11
S'record_id'
p12
g6
sS'aln_count'
p13
I1
sS'cdss'
p14
(dp15
sbsS'U20857.1'
p16
g7
(g8
g9
NtRp17
(dp18
g12
g16
sg13
I1
sg14
(dp19
S'U20857.1'
p20
I1
ssbsS'FP236357.7'
p21
g7
(g8
g9
NtRp22
(dp23
g12
g21
sg13
I1
sg14
(dp24
sbsS'AC134882.2'
p25
g7
(g8
g9
NtRp26
(dp27
g12
g25
sg13
I2
sg14
(dp28
sbsS'AL671532.13'
p29
g7
(g8
g9
NtRp30
(dp31
g12
g29
sg13
I4
sg14
(dp32
sbsS'AL121877.14'
p33
g7
(g8
g9
NtRp34
(dp35
g12
g33
sg13
I1
sg14
(dp36
sbsS'CR392002.14'
p37
g7
(g8
g9
NtRp38
(dp39
g12
g37
sg13
I1
sg14
(dp40
sbsS'AC239461.3'
p41
g7
(g8
g9
NtRp42
(dp43
g12
g41
sg13
I1
sg14
(dp44
sbsS'AC097652.2'
p45
g7
(g8
g9
NtRp46
(dp47
g12
g45
sg13
I1
sg14
(dp48
sbsS'AC150749.3'
p49
g7
(g8
g9
NtRp50
(dp51
g12
g49
sg13
I1
sg14
(dp52
sbsS'HE978315.1'
p53
g7
(g8
g9
NtRp54
(dp55
g12
g53
sg13
I1
sg14
(dp56
sbsS'AJ428576.2'
p57
g7
(g8
g9
NtRp58
(dp59
g12
g57
sg13
I1
sg14
(dp60
S'AJ428576.2'
p61
I1
ssbsS'AM461534.2'
p62
g7
(g8
g9
NtRp63
(dp64
g12
g62
sg13
I1
sg14
(dp65
sbsS'AC135105.11'
p66
g7
(g8
g9
NtRp67
(dp68
g12
g66
sg13
I1
sg14
(dp69
sbsS'HQ052270.1'
p70
g7
(g8
g9
NtRp71
(dp72
g12
g70
sg13
I1
sg14
(dp73
sbsS'XM_001975448.1'
p74
g7
(g8
g9
NtRp75
(dp76
g12
g74
sg13
I1
sg14
(dp77
S'XM_001975448.1'
p78
I1
ssbsS'AK096741.1'
p79
g7
(g8
g9
NtRp80
(dp81
g12
g79
sg13
I1
sg14
(dp82
sbsS'AL031427.15'
p83
g7
(g8
g9
NtRp84
(dp85
g12
g83
sg13
I1
sg14
(dp86
sbsS'AC202602.5'
p87
g7
(g8
g9
NtRp88
(dp89
g12
g87
sg13
I1
sg14
(dp90
sbsS'CR533429.7'
p91
g7
(g8
g9
NtRp92
(dp93
g12
g91
sg13
I1
sg14
(dp94
sbsS'AC000091.1'
p95
g7
(g8
g9
NtRp96
(dp97
g12
g95
sg13
I1
sg14
(dp98
sbsS'XM_002921856.1'
p99
g7
(g8
g9
NtRp100
(dp101
g12
g99
sg13
I1
sg14
(dp102
S'XM_002921856.1'
p103
I1
ssbsS'NG_029225.1'
p104
g7
(g8
g9
NtRp105
(dp106
g12
g104
sg13
I1
sg14
(dp107
sbsS'XM_738597.1'
p108
g7
(g8
g9
NtRp109
(dp110
g12
g108
sg13
I1
sg14
(dp111
S'XM_738597.1'
p112
I1
ssbsS'AC192932.3'
p113
g7
(g8
g9
NtRp114
(dp115
g12
g113
sg13
I14
sg14
(dp116
sbsS'AC005776.1'
p117
g7
(g8
g9
NtRp118
(dp119
g12
g117
sg13
I1
sg14
(dp120
sbsS'NG_011878.1'
p121
g7
(g8
g9
NtRp122
(dp123
g12
g121
sg13
I2
sg14
(dp124
sbsS'AC008425.6'
p125
g7
(g8
g9
NtRp126
(dp127
g12
g125
sg13
I1
sg14
(dp128
sbsS'L08062.1'
p129
g7
(g8
g9
NtRp130
(dp131
g12
g129
sg13
I2
sg14
(dp132
sbsS'AC200688.3'
p133
g7
(g8
g9
NtRp134
(dp135
g12
g133
sg13
I2
sg14
(dp136
sbsS'AC142122.2'
p137
g7
(g8
g9
NtRp138
(dp139
g12
g137
sg13
I1
sg14
(dp140
sbsS'FJ033001.1'
p141
g7
(g8
g9
NtRp142
(dp143
g12
g141
sg13
I1
sg14
(dp144
sbsS'AC234831.1'
p145
g7
(g8
g9
NtRp146
(dp147
g12
g145
sg13
I1
sg14
(dp148
sbsS'AL161419.15'
p149
g7
(g8
g9
NtRp150
(dp151
g12
g149
sg13
I2
sg14
(dp152
sbsS'NG_009221.1'
p153
g7
(g8
g9
NtRp154
(dp155
g12
g153
sg13
I3
sg14
(dp156
sbsS'EF621784.1'
p157
g7
(g8
g9
NtRp158
(dp159
g12
g157
sg13
I1
sg14
(dp160
sbsS'AY064314.1'
p161
g7
(g8
g9
NtRp162
(dp163
g12
g161
sg13
I1
sg14
(dp164
sbsS'AC243266.3'
p165
g7
(g8
g9
NtRp166
(dp167
g12
g165
sg13
I2
sg14
(dp168
sbsS'XM_002768927.1'
p169
g7
(g8
g9
NtRp170
(dp171
g12
g169
sg13
I1
sg14
(dp172
sbsS'AC079255.5'
p173
g7
(g8
g9
NtRp174
(dp175
g12
g173
sg13
I14
sg14
(dp176
sbsS'EU845743.1'
p177
g7
(g8
g9
NtRp178
(dp179
g12
g177
sg13
I1
sg14
(dp180
S'EU845743.1'
p181
I1
ssbsS'AC021413.16'
p182
g7
(g8
g9
NtRp183
(dp184
g12
g182
sg13
I1
sg14
(dp185
sbsS'AC093870.3'
p186
g7
(g8
g9
NtRp187
(dp188
g12
g186
sg13
I1
sg14
(dp189
sbsS'FN392322.1'
p190
g7
(g8
g9
NtRp191
(dp192
g12
g190
sg13
I2
sg14
(dp193
sbsS'AM454012.1'
p194
g7
(g8
g9
NtRp195
(dp196
g12
g194
sg13
I1
sg14
(dp197
sbsS'AC147099.2'
p198
g7
(g8
g9
NtRp199
(dp200
g12
g198
sg13
I1
sg14
(dp201
sbsS'AC096909.10'
p202
g7
(g8
g9
NtRp203
(dp204
g12
g202
sg13
I1
sg14
(dp205
sbsS'AY019874.1'
p206
g7
(g8
g9
NtRp207
(dp208
g12
g206
sg13
I1
sg14
(dp209
sbsS'AP002364.4'
p210
g7
(g8
g9
NtRp211
(dp212
g12
g210
sg13
I1
sg14
(dp213
sbsS'AC237179.3'
p214
g7
(g8
g9
NtRp215
(dp216
g12
g214
sg13
I1
sg14
(dp217
sbsS'AC104038.9'
p218
g7
(g8
g9
NtRp219
(dp220
g12
g218
sg13
I6
sg14
(dp221
sbsS'AC007380.3'
p222
g7
(g8
g9
NtRp223
(dp224
g12
g222
sg13
I1
sg14
(dp225
sbsS'AC238573.3'
p226
g7
(g8
g9
NtRp227
(dp228
g12
g226
sg13
I1
sg14
(dp229
sbsS'AC199714.3'
p230
g7
(g8
g9
NtRp231
(dp232
g12
g230
sg13
I1
sg14
(dp233
sbsS'AC234938.3'
p234
g7
(g8
g9
NtRp235
(dp236
g12
g234
sg13
I1
sg14
(dp237
sbsS'FP885539.3'
p238
g7
(g8
g9
NtRp239
(dp240
g12
g238
sg13
I1
sg14
(dp241
sbsS'BS000668.1'
p242
g7
(g8
g9
NtRp243
(dp244
g12
g242
sg13
I1
sg14
(dp245
sbsS'AC010517.3'
p246
g7
(g8
g9
NtRp247
(dp248
g12
g246
sg13
I1
sg14
(dp249
sbsS'AP004071.3'
p250
g7
(g8
g9
NtRp251
(dp252
g12
g250
sg13
I1
sg14
(dp253
sbsS'AC069027.9'
p254
g7
(g8
g9
NtRp255
(dp256
g12
g254
sg13
I1
sg14
(dp257
sbsS'XM_002798833.1'
p258
g7
(g8
g9
NtRp259
(dp260
g12
g258
sg13
I2
sg14
(dp261
S'XM_002798833.1'
p262
I2
ssbsS'AL049834.3'
p263
g7
(g8
g9
NtRp264
(dp265
g12
g263
sg13
I1
sg14
(dp266
sbsS'AB108159.1'
p267
g7
(g8
g9
NtRp268
(dp269
g12
g267
sg13
I1
sg14
(dp270
sbsS'XM_641208.1'
p271
g7
(g8
g9
NtRp272
(dp273
g12
g271
sg13
I1
sg14
(dp274
S'XM_641208.1'
p275
I1
ssbsS'AL591856.26'
p276
g7
(g8
g9
NtRp277
(dp278
g12
g276
sg13
I1
sg14
(dp279
sbsS'AJ414002.1'
p280
g7
(g8
g9
NtRp281
(dp282
g12
g280
sg13
I1
sg14
(dp283
S'AJ414002.1'
p284
I1
ssbsS'HQ505659.1'
p285
g7
(g8
g9
NtRp286
(dp287
g12
g285
sg13
I3
sg14
(dp288
sbsS'NG_028043.1'
p289
g7
(g8
g9
NtRp290
(dp291
g12
g289
sg13
I1
sg14
(dp292
sbsS'AC146043.2'
p293
g7
(g8
g9
NtRp294
(dp295
g12
g293
sg13
I1
sg14
(dp296
sbsS'AC136729.7'
p297
g7
(g8
g9
NtRp298
(dp299
g12
g297
sg13
I1
sg14
(dp300
sbsS'AK108106.1'
p301
g7
(g8
g9
NtRp302
(dp303
g12
g301
sg13
I1
sg14
(dp304
sbsS'XM_002430973.1'
p305
g7
(g8
g9
NtRp306
(dp307
g12
g305
sg13
I2
sg14
(dp308
S'XM_002430973.1'
p309
I2
ssbsS'AL450342.16'
p310
g7
(g8
g9
NtRp311
(dp312
g12
g310
sg13
I1
sg14
(dp313
sbsS'AY352640.1'
p314
g7
(g8
g9
NtRp315
(dp316
g12
g314
sg13
I1
sg14
(dp317
sbsS'JN023091.1'
p318
g7
(g8
g9
NtRp319
(dp320
g12
g318
sg13
I2
sg14
(dp321
sbsS'AF013294.1'
p322
g7
(g8
g9
NtRp323
(dp324
g12
g322
sg13
I2
sg14
(dp325
sbsS'AE015924.1'
p326
g7
(g8
g9
NtRp327
(dp328
g12
g326
sg13
I2
sg14
(dp329
sbsS'AC022370.28'
p330
g7
(g8
g9
NtRp331
(dp332
g12
g330
sg13
I3
sg14
(dp333
sbsS'NG_011884.1'
p334
g7
(g8
g9
NtRp335
(dp336
g12
g334
sg13
I15
sg14
(dp337
sbsS'GU761978.1'
p338
g7
(g8
g9
NtRp339
(dp340
g12
g338
sg13
I3
sg14
(dp341
sbsS'GU920650.1'
p342
g7
(g8
g9
NtRp343
(dp344
g12
g342
sg13
I1
sg14
(dp345
sbsS'AC012123.8'
p346
g7
(g8
g9
NtRp347
(dp348
g12
g346
sg13
I1
sg14
(dp349
sbsS'D90391.2'
p350
g7
(g8
g9
NtRp351
(dp352
g12
g350
sg13
I1
sg14
(dp353
S'D90391.2'
p354
I1
ssbsS'XM_001767302.1'
p355
g7
(g8
g9
NtRp356
(dp357
g12
g355
sg13
I1
sg14
(dp358
S'XM_001767302.1'
p359
I1
ssbsS'AC068522.7'
p360
g7
(g8
g9
NtRp361
(dp362
g12
g360
sg13
I1
sg14
(dp363
sbsS'AC004081.1'
p364
g7
(g8
g9
NtRp365
(dp366
g12
g364
sg13
I1
sg14
(dp367
sbsS'AM434419.2'
p368
g7
(g8
g9
NtRp369
(dp370
g12
g368
sg13
I1
sg14
(dp371
sbsS'AL954848.9'
p372
g7
(g8
g9
NtRp373
(dp374
g12
g372
sg13
I2
sg14
(dp375
sbsS'XM_003821279.1'
p376
g7
(g8
g9
NtRp377
(dp378
g12
g376
sg13
I2
sg14
(dp379
S'XM_003821279.1'
p380
I2
ssbsS'CT027699.14'
p381
g7
(g8
g9
NtRp382
(dp383
g12
g381
sg13
I4
sg14
(dp384
sbsS'AC147648.4'
p385
g7
(g8
g9
NtRp386
(dp387
g12
g385
sg13
I3
sg14
(dp388
sbsS'AC156940.1'
p389
g7
(g8
g9
NtRp390
(dp391
g12
g389
sg13
I2
sg14
(dp392
sbsS'AC245872.4'
p393
g7
(g8
g9
NtRp394
(dp395
g12
g393
sg13
I1
sg14
(dp396
sbsS'AC187369.3'
p397
g7
(g8
g9
NtRp398
(dp399
g12
g397
sg13
I1
sg14
(dp400
sbsS'AC096855.5'
p401
g7
(g8
g9
NtRp402
(dp403
g12
g401
sg13
I1
sg14
(dp404
sbsS'AC093488.1'
p405
g7
(g8
g9
NtRp406
(dp407
g12
g405
sg13
I1
sg14
(dp408
sbsS'AC008698.6'
p409
g7
(g8
g9
NtRp410
(dp411
g12
g409
sg13
I1
sg14
(dp412
sbsS'M55575.1'
p413
g7
(g8
g9
NtRp414
(dp415
g12
g413
sg13
I1
sg14
(dp416
S'M55575.1'
p417
I1
ssbsS'AL389888.8'
p418
g7
(g8
g9
NtRp419
(dp420
g12
g418
sg13
I1
sg14
(dp421
sbsS'AC215319.3'
p422
g7
(g8
g9
NtRp423
(dp424
g12
g422
sg13
I1
sg14
(dp425
sbsS'BX957338.16'
p426
g7
(g8
g9
NtRp427
(dp428
g12
g426
sg13
I1
sg14
(dp429
sbsS'X75887.1'
p430
g7
(g8
g9
NtRp431
(dp432
g12
g430
sg13
I1
sg14
(dp433
S'X75887.1'
p434
I1
ssbsS'AC243192.3'
p435
g7
(g8
g9
NtRp436
(dp437
g12
g435
sg13
I1
sg14
(dp438
sbsS'AC150416.2'
p439
g7
(g8
g9
NtRp440
(dp441
g12
g439
sg13
I1
sg14
(dp442
sbsS'AC022007.5'
p443
g7
(g8
g9
NtRp444
(dp445
g12
g443
sg13
I1
sg14
(dp446
sbsS'CT737430.2'
p447
g7
(g8
g9
NtRp448
(dp449
g12
g447
sg13
I1
sg14
(dp450
sbsS'AL021938.1'
p451
g7
(g8
g9
NtRp452
(dp453
g12
g451
sg13
I1
sg14
(dp454
sbsS'AC006373.3'
p455
g7
(g8
g9
NtRp456
(dp457
g12
g455
sg13
I2
sg14
(dp458
sbsS'AC201630.7'
p459
g7
(g8
g9
NtRp460
(dp461
g12
g459
sg13
I15
sg14
(dp462
sbsS'NG_012152.1'
p463
g7
(g8
g9
NtRp464
(dp465
g12
g463
sg13
I3
sg14
(dp466
sbsS'NG_029947.1'
p467
g7
(g8
g9
NtRp468
(dp469
g12
g467
sg13
I1
sg14
(dp470
sbsS'CP000586.1'
p471
g7
(g8
g9
NtRp472
(dp473
g12
g471
sg13
I1
sg14
(dp474
S'CP000586.1'
p475
I1
ssbsS'AF167066.1'
p476
g7
(g8
g9
NtRp477
(dp478
g12
g476
sg13
I1
sg14
(dp479
sbsS'XM_801294.1'
p480
g7
(g8
g9
NtRp481
(dp482
g12
g480
sg13
I1
sg14
(dp483
S'XM_801294.1'
p484
I1
ssbsS'XM_002274914.1'
p485
g7
(g8
g9
NtRp486
(dp487
g12
g485
sg13
I1
sg14
(dp488
S'XM_002274914.1'
p489
I1
ssbsS'AC098935.2'
p490
g7
(g8
g9
NtRp491
(dp492
g12
g490
sg13
I1
sg14
(dp493
sbsS'AC243631.3'
p494
g7
(g8
g9
NtRp495
(dp496
g12
g494
sg13
I1
sg14
(dp497
sbsS'AL031780.1'
p498
g7
(g8
g9
NtRp499
(dp500
g12
g498
sg13
I1
sg14
(dp501
sbsS'XM_003943707.1'
p502
g7
(g8
g9
NtRp503
(dp504
g12
g502
sg13
I1
sg14
(dp505
sbsS'AC007160.3'
p506
g7
(g8
g9
NtRp507
(dp508
g12
g506
sg13
I1
sg14
(dp509
sbsS'NG_009014.2'
p510
g7
(g8
g9
NtRp511
(dp512
g12
g510
sg13
I1
sg14
(dp513
sbsS'AC188798.3'
p514
g7
(g8
g9
NtRp515
(dp516
g12
g514
sg13
I1
sg14
(dp517
sbsS'AL356218.22'
p518
g7
(g8
g9
NtRp519
(dp520
g12
g518
sg13
I1
sg14
(dp521
sbsS'AL049564.11'
p522
g7
(g8
g9
NtRp523
(dp524
g12
g522
sg13
I1
sg14
(dp525
sbsS'AC129779.2'
p526
g7
(g8
g9
NtRp527
(dp528
g12
g526
sg13
I1
sg14
(dp529
sbsS'AK121838.1'
p530
g7
(g8
g9
NtRp531
(dp532
g12
g530
sg13
I1
sg14
(dp533
S'AK121838.1'
p534
I1
ssbsS'BX247877.13'
p535
g7
(g8
g9
NtRp536
(dp537
g12
g535
sg13
I1
sg14
(dp538
sbsS'AP004782.3'
p539
g7
(g8
g9
NtRp540
(dp541
g12
g539
sg13
I5
sg14
(dp542
sbsS'AC120807.4'
p543
g7
(g8
g9
NtRp544
(dp545
g12
g543
sg13
I2
sg14
(dp546
sbsS'AC005467.1'
p547
g7
(g8
g9
NtRp548
(dp549
g12
g547
sg13
I1
sg14
(dp550
sbsS'NG_023437.1'
p551
g7
(g8
g9
NtRp552
(dp553
g12
g551
sg13
I3
sg14
(dp554
sbsS'XM_003846153.1'
p555
g7
(g8
g9
NtRp556
(dp557
g12
g555
sg13
I3
sg14
(dp558
S'XM_003846153.1'
p559
I3
ssbsS'AC231290.2'
p560
g7
(g8
g9
NtRp561
(dp562
g12
g560
sg13
I1
sg14
(dp563
sbsS'AC239656.3'
p564
g7
(g8
g9
NtRp565
(dp566
g12
g564
sg13
I15
sg14
(dp567
sbsS'AC007156.2'
p568
g7
(g8
g9
NtRp569
(dp570
g12
g568
sg13
I1
sg14
(dp571
sbsS'AL138755.13'
p572
g7
(g8
g9
NtRp573
(dp574
g12
g572
sg13
I1
sg14
(dp575
sbsS'AC016632.7'
p576
g7
(g8
g9
NtRp577
(dp578
g12
g576
sg13
I1
sg14
(dp579
sbsS'HE616743.1'
p580
g7
(g8
g9
NtRp581
(dp582
g12
g580
sg13
I6
sg14
(dp583
S'HE616743.1'
p584
I6
ssbsS'M59097.1'
p585
g7
(g8
g9
NtRp586
(dp587
g12
g585
sg13
I1
sg14
(dp588
sbsS'AL136365.9'
p589
g7
(g8
g9
NtRp590
(dp591
g12
g589
sg13
I3
sg14
(dp592
sbsS'AC145925.2'
p593
g7
(g8
g9
NtRp594
(dp595
g12
g593
sg13
I1
sg14
(dp596
sbsS'AL391595.14'
p597
g7
(g8
g9
NtRp598
(dp599
g12
g597
sg13
I1
sg14
(dp600
sbsS'AC010853.11'
p601
g7
(g8
g9
NtRp602
(dp603
g12
g601
sg13
I1
sg14
(dp604
sbsS'Z95114.19'
p605
g7
(g8
g9
NtRp606
(dp607
g12
g605
sg13
I6
sg14
(dp608
sbsS'AL772398.7'
p609
g7
(g8
g9
NtRp610
(dp611
g12
g609
sg13
I1
sg14
(dp612
sbsS'XM_002264161.1'
p613
g7
(g8
g9
NtRp614
(dp615
g12
g613
sg13
I1
sg14
(dp616
S'XM_002264161.1'
p617
I1
ssbsS'AC172374.4'
p618
g7
(g8
g9
NtRp619
(dp620
g12
g618
sg13
I1
sg14
(dp621
sbsS'NG_012107.1'
p622
g7
(g8
g9
NtRp623
(dp624
g12
g622
sg13
I5
sg14
(dp625
sbsS'AP005530.3'
p626
g7
(g8
g9
NtRp627
(dp628
g12
g626
sg13
I1
sg14
(dp629
sbsS'AC006970.6'
p630
g7
(g8
g9
NtRp631
(dp632
g12
g630
sg13
I1
sg14
(dp633
sbsS'AC009122.8'
p634
g7
(g8
g9
NtRp635
(dp636
g12
g634
sg13
I8
sg14
(dp637
sbsS'CR548632.13'
p638
g7
(g8
g9
NtRp639
(dp640
g12
g638
sg13
I1
sg14
(dp641
sbsS'AC165245.2'
p642
g7
(g8
g9
NtRp643
(dp644
g12
g642
sg13
I1
sg14
(dp645
sbsS'AK123203.1'
p646
g7
(g8
g9
NtRp647
(dp648
g12
g646
sg13
I1
sg14
(dp649
sbsS'NG_009775.1'
p650
g7
(g8
g9
NtRp651
(dp652
g12
g650
sg13
I1
sg14
(dp653
S'NG_009775.1'
p654
I2
ssbsS'AC146056.2'
p655
g7
(g8
g9
NtRp656
(dp657
g12
g655
sg13
I1
sg14
(dp658
sbsS'AC007694.7'
p659
g7
(g8
g9
NtRp660
(dp661
g12
g659
sg13
I1
sg14
(dp662
sbsS'AK030418.1'
p663
g7
(g8
g9
NtRp664
(dp665
g12
g663
sg13
I1
sg14
(dp666
sbsS'AC025853.17'
p667
g7
(g8
g9
NtRp668
(dp669
g12
g667
sg13
I1
sg14
(dp670
sbsS'FP929060.1'
p671
g7
(g8
g9
NtRp672
(dp673
g12
g671
sg13
I4
sg14
(dp674
sbsS'AK327468.1'
p675
g7
(g8
g9
NtRp676
(dp677
g12
g675
sg13
I1
sg14
(dp678
sbsS'AC140847.4'
p679
g7
(g8
g9
NtRp680
(dp681
g12
g679
sg13
I1
sg14
(dp682
sbsS'AC214217.2'
p683
g7
(g8
g9
NtRp684
(dp685
g12
g683
sg13
I3
sg14
(dp686
sbsS'AC138305.2'
p687
g7
(g8
g9
NtRp688
(dp689
g12
g687
sg13
I1
sg14
(dp690
sbsS'AL391989.9'
p691
g7
(g8
g9
NtRp692
(dp693
g12
g691
sg13
I2
sg14
(dp694
sbsS'AC022535.6'
p695
g7
(g8
g9
NtRp696
(dp697
g12
g695
sg13
I1
sg14
(dp698
sbsS'AC098858.3'
p699
g7
(g8
g9
NtRp700
(dp701
g12
g699
sg13
I1
sg14
(dp702
sbsS'XM_003821544.1'
p703
g7
(g8
g9
NtRp704
(dp705
g12
g703
sg13
I3
sg14
(dp706
S'XM_003821544.1'
p707
I2
ssbsS'HE601629.1'
p708
g7
(g8
g9
NtRp709
(dp710
g12
g708
sg13
I1
sg14
(dp711
sbsS'AC105265.4'
p712
g7
(g8
g9
NtRp713
(dp714
g12
g712
sg13
I1
sg14
(dp715
sbsS'AC027708.12'
p716
g7
(g8
g9
NtRp717
(dp718
g12
g716
sg13
I2
sg14
(dp719
sbsS'X67031.1'
p720
g7
(g8
g9
NtRp721
(dp722
g12
g720
sg13
I1
sg14
(dp723
sbsS'XM_003769397.1'
p724
g7
(g8
g9
NtRp725
(dp726
g12
g724
sg13
I1
sg14
(dp727
sbsS'AL050404.3'
p728
g7
(g8
g9
NtRp729
(dp730
g12
g728
sg13
I1
sg14
(dp731
sbsS'NG_006450.2'
p732
g7
(g8
g9
NtRp733
(dp734
g12
g732
sg13
I1
sg14
(dp735
sbsS'CT033752.6'
p736
g7
(g8
g9
NtRp737
(dp738
g12
g736
sg13
I1
sg14
(dp739
sbsS'AF051684.1'
p740
g7
(g8
g9
NtRp741
(dp742
g12
g740
sg13
I4
sg14
(dp743
sbsS'AC067796.11'
p744
g7
(g8
g9
NtRp745
(dp746
g12
g744
sg13
I1
sg14
(dp747
sbsS'AC007308.13'
p748
g7
(g8
g9
NtRp749
(dp750
g12
g748
sg13
I3
sg14
(dp751
sbsS'AC002470.17'
p752
g7
(g8
g9
NtRp753
(dp754
g12
g752
sg13
I3
sg14
(dp755
sbsS'FJ471459.1'
p756
g7
(g8
g9
NtRp757
(dp758
g12
g756
sg13
I12
sg14
(dp759
sbsS'AC116917.2'
p760
g7
(g8
g9
NtRp761
(dp762
g12
g760
sg13
I1
sg14
(dp763
sbsS'AC134620.4'
p764
g7
(g8
g9
NtRp765
(dp766
g12
g764
sg13
I1
sg14
(dp767
sbsS'XM_003810194.1'
p768
g7
(g8
g9
NtRp769
(dp770
g12
g768
sg13
I3
sg14
(dp771
S'XM_003810194.1'
p772
I3
ssbsS'BX546479.5'
p773
g7
(g8
g9
NtRp774
(dp775
g12
g773
sg13
I2
sg14
(dp776
sbsS'HQ075512.1'
p777
g7
(g8
g9
NtRp778
(dp779
g12
g777
sg13
I2
sg14
(dp780
sbsS'NG_027954.1'
p781
g7
(g8
g9
NtRp782
(dp783
g12
g781
sg13
I1
sg14
(dp784
sbsS'XM_780567.3'
p785
g7
(g8
g9
NtRp786
(dp787
g12
g785
sg13
I1
sg14
(dp788
sbsS'AM456568.2'
p789
g7
(g8
g9
NtRp790
(dp791
g12
g789
sg13
I2
sg14
(dp792
sbsS'NG_016478.1'
p793
g7
(g8
g9
NtRp794
(dp795
g12
g793
sg13
I1
sg14
(dp796
sbsS'AP002833.3'
p797
g7
(g8
g9
NtRp798
(dp799
g12
g797
sg13
I1
sg14
(dp800
sbsS'GU740665.1'
p801
g7
(g8
g9
NtRp802
(dp803
g12
g801
sg13
I1
sg14
(dp804
sbsS'AC154790.2'
p805
g7
(g8
g9
NtRp806
(dp807
g12
g805
sg13
I1
sg14
(dp808
sbsS'AC192760.2'
p809
g7
(g8
g9
NtRp810
(dp811
g12
g809
sg13
I1
sg14
(dp812
sbsS'AC145864.2'
p813
g7
(g8
g9
NtRp814
(dp815
g12
g813
sg13
I1
sg14
(dp816
sbsS'HE601631.1'
p817
g7
(g8
g9
NtRp818
(dp819
g12
g817
sg13
I2
sg14
(dp820
sbsS'FQ222430.1'
p821
g7
(g8
g9
NtRp822
(dp823
g12
g821
sg13
I11
sg14
(dp824
sbsS'AC104316.3'
p825
g7
(g8
g9
NtRp826
(dp827
g12
g825
sg13
I1
sg14
(dp828
sbsS'BC018500.1'
p829
g7
(g8
g9
NtRp830
(dp831
g12
g829
sg13
I1
sg14
(dp832
sbsS'CU655820.18'
p833
g7
(g8
g9
NtRp834
(dp835
g12
g833
sg13
I1
sg14
(dp836
sbsS'GQ426865.1'
p837
g7
(g8
g9
NtRp838
(dp839
g12
g837
sg13
I1
sg14
(dp840
sbsS'AL117376.28'
p841
g7
(g8
g9
NtRp842
(dp843
g12
g841
sg13
I1
sg14
(dp844
sbsS'AC188568.4'
p845
g7
(g8
g9
NtRp846
(dp847
g12
g845
sg13
I14
sg14
(dp848
sbsS'HQ896835.1'
p849
g7
(g8
g9
NtRp850
(dp851
g12
g849
sg13
I1
sg14
(dp852
sbsS'FP236505.8'
p853
g7
(g8
g9
NtRp854
(dp855
g12
g853
sg13
I1
sg14
(dp856
sbsS'AL138924.25'
p857
g7
(g8
g9
NtRp858
(dp859
g12
g857
sg13
I1
sg14
(dp860
sbsS'XR_135657.1'
p861
g7
(g8
g9
NtRp862
(dp863
g12
g861
sg13
I1
sg14
(dp864
sbsS'AC188564.3'
p865
g7
(g8
g9
NtRp866
(dp867
g12
g865
sg13
I1
sg14
(dp868
sbsS'AC135731.6'
p869
g7
(g8
g9
NtRp870
(dp871
g12
g869
sg13
I1
sg14
(dp872
sbsS'AL353786.16'
p873
g7
(g8
g9
NtRp874
(dp875
g12
g873
sg13
I1
sg14
(dp876
sbsS'NG_012971.1'
p877
g7
(g8
g9
NtRp878
(dp879
g12
g877
sg13
I1
sg14
(dp880
sbsS'AC139345.8'
p881
g7
(g8
g9
NtRp882
(dp883
g12
g881
sg13
I3
sg14
(dp884
sbsS'HQ075653.1'
p885
g7
(g8
g9
NtRp886
(dp887
g12
g885
sg13
I1
sg14
(dp888
sbsS'Y08006.1'
p889
g7
(g8
g9
NtRp890
(dp891
g12
g889
sg13
I1
sg14
(dp892
sbsS'AC111195.4'
p893
g7
(g8
g9
NtRp894
(dp895
g12
g893
sg13
I1
sg14
(dp896
sbsS'AL136478.9'
p897
g7
(g8
g9
NtRp898
(dp899
g12
g897
sg13
I2
sg14
(dp900
sbsS'Z61520.1'
p901
g7
(g8
g9
NtRp902
(dp903
g12
g901
sg13
I1
sg14
(dp904
sbsS'AC006506.1'
p905
g7
(g8
g9
NtRp906
(dp907
g12
g905
sg13
I1
sg14
(dp908
sbsS'CU633867.1'
p909
g7
(g8
g9
NtRp910
(dp911
g12
g909
sg13
I1
sg14
(dp912
sbsS'FJ809032.1'
p913
g7
(g8
g9
NtRp914
(dp915
g12
g913
sg13
I1
sg14
(dp916
sbsS'AC100873.2'
p917
g7
(g8
g9
NtRp918
(dp919
g12
g917
sg13
I1
sg14
(dp920
sbsS'AC025287.8'
p921
g7
(g8
g9
NtRp922
(dp923
g12
g921
sg13
I6
sg14
(dp924
sbsS'AL136377.15'
p925
g7
(g8
g9
NtRp926
(dp927
g12
g925
sg13
I1
sg14
(dp928
sbsS'AC198462.3'
p929
g7
(g8
g9
NtRp930
(dp931
g12
g929
sg13
I1
sg14
(dp932
sbsS'AC006249.1'
p933
g7
(g8
g9
NtRp934
(dp935
g12
g933
sg13
I1
sg14
(dp936
sbsS'AC113190.8'
p937
g7
(g8
g9
NtRp938
(dp939
g12
g937
sg13
I1
sg14
(dp940
sbsS'CT573303.9'
p941
g7
(g8
g9
NtRp942
(dp943
g12
g941
sg13
I1
sg14
(dp944
sbsS'FP929037.1'
p945
g7
(g8
g9
NtRp946
(dp947
g12
g945
sg13
I4
sg14
(dp948
S'FP929037.1'
p949
I4
ssbsS'XM_001325253.1'
p950
g7
(g8
g9
NtRp951
(dp952
g12
g950
sg13
I1
sg14
(dp953
S'XM_001325253.1'
p954
I1
ssbsS'AC106882.5'
p955
g7
(g8
g9
NtRp956
(dp957
g12
g955
sg13
I2
sg14
(dp958
sbsS'AP001005.6'
p959
g7
(g8
g9
NtRp960
(dp961
g12
g959
sg13
I2
sg14
(dp962
sbsS'U96726.1'
p963
g7
(g8
g9
NtRp964
(dp965
g12
g963
sg13
I1
sg14
(dp966
sbsS'AC147448.2'
p967
g7
(g8
g9
NtRp968
(dp969
g12
g967
sg13
I1
sg14
(dp970
sbsS'AC155248.2'
p971
g7
(g8
g9
NtRp972
(dp973
g12
g971
sg13
I1
sg14
(dp974
sbsS'GU266908.1'
p975
g7
(g8
g9
NtRp976
(dp977
g12
g975
sg13
I1
sg14
(dp978
sbsS'AC114313.2'
p979
g7
(g8
g9
NtRp980
(dp981
g12
g979
sg13
I1
sg14
(dp982
sbsS'CR354535.11'
p983
g7
(g8
g9
NtRp984
(dp985
g12
g983
sg13
I1
sg14
(dp986
sbsS'GU918533.1'
p987
g7
(g8
g9
NtRp988
(dp989
g12
g987
sg13
I1
sg14
(dp990
sbsS'AC155234.1'
p991
g7
(g8
g9
NtRp992
(dp993
g12
g991
sg13
I1
sg14
(dp994
sbsS'AL596205.3'
p995
g7
(g8
g9
NtRp996
(dp997
g12
g995
sg13
I1
sg14
(dp998
sbsS'AE014297.2'
p999
g7
(g8
g9
NtRp1000
(dp1001
g12
g999
sg13
I1
sg14
(dp1002
sbsS'AC036214.9'
p1003
g7
(g8
g9
NtRp1004
(dp1005
g12
g1003
sg13
I1
sg14
(dp1006
sbsS'AC214306.4'
p1007
g7
(g8
g9
NtRp1008
(dp1009
g12
g1007
sg13
I5
sg14
(dp1010
sbsS'AC006994.4'
p1011
g7
(g8
g9
NtRp1012
(dp1013
g12
g1011
sg13
I1
sg14
(dp1014
sbsS'AC225608.3'
p1015
g7
(g8
g9
NtRp1016
(dp1017
g12
g1015
sg13
I1
sg14
(dp1018
sbsS'AC021636.16'
p1019
g7
(g8
g9
NtRp1020
(dp1021
g12
g1019
sg13
I2
sg14
(dp1022
sbsS'AC104108.3'
p1023
g7
(g8
g9
NtRp1024
(dp1025
g12
g1023
sg13
I3
sg14
(dp1026
sbsS'Z61519.1'
p1027
g7
(g8
g9
NtRp1028
(dp1029
g12
g1027
sg13
I1
sg14
(dp1030
sbsS'JN770605.1'
p1031
g7
(g8
g9
NtRp1032
(dp1033
g12
g1031
sg13
I2
sg14
(dp1034
sbsS'AL603749.6'
p1035
g7
(g8
g9
NtRp1036
(dp1037
g12
g1035
sg13
I1
sg14
(dp1038
sbsS'DQ650705.1'
p1039
g7
(g8
g9
NtRp1040
(dp1041
g12
g1039
sg13
I1
sg14
(dp1042
sbsS'AL121895.26'
p1043
g7
(g8
g9
NtRp1044
(dp1045
g12
g1043
sg13
I3
sg14
(dp1046
sbsS'AM444490.2'
p1047
g7
(g8
g9
NtRp1048
(dp1049
g12
g1047
sg13
I1
sg14
(dp1050
sbsS'BC001943.1'
p1051
g7
(g8
g9
NtRp1052
(dp1053
g12
g1051
sg13
I1
sg14
(dp1054
sbsS'NG_012886.1'
p1055
g7
(g8
g9
NtRp1056
(dp1057
g12
g1055
sg13
I1
sg14
(dp1058
sbsS'AC233266.3'
p1059
g7
(g8
g9
NtRp1060
(dp1061
g12
g1059
sg13
I1
sg14
(dp1062
sbsS'AC187640.2'
p1063
g7
(g8
g9
NtRp1064
(dp1065
g12
g1063
sg13
I1
sg14
(dp1066
sbsS'AC024405.6'
p1067
g7
(g8
g9
NtRp1068
(dp1069
g12
g1067
sg13
I1
sg14
(dp1070
sbsS'AM465199.2'
p1071
g7
(g8
g9
NtRp1072
(dp1073
g12
g1071
sg13
I17
sg14
(dp1074
sbsS'AC012078.3'
p1075
g7
(g8
g9
NtRp1076
(dp1077
g12
g1075
sg13
I1
sg14
(dp1078
sbsS'XM_801626.1'
p1079
g7
(g8
g9
NtRp1080
(dp1081
g12
g1079
sg13
I1
sg14
(dp1082
S'XM_801626.1'
p1083
I1
ssbsS'AM471413.2'
p1084
g7
(g8
g9
NtRp1085
(dp1086
g12
g1084
sg13
I2
sg14
(dp1087
sbsS'BX005375.9'
p1088
g7
(g8
g9
NtRp1089
(dp1090
g12
g1088
sg13
I4
sg14
(dp1091
sbsS'AL606974.9'
p1092
g7
(g8
g9
NtRp1093
(dp1094
g12
g1092
sg13
I1
sg14
(dp1095
sbsS'NR_044718.1'
p1096
g7
(g8
g9
NtRp1097
(dp1098
g12
g1096
sg13
I2
sg14
(dp1099
sbsS'AL109825.23'
p1100
g7
(g8
g9
NtRp1101
(dp1102
g12
g1100
sg13
I1
sg14
(dp1103
sbsS'AC099653.5'
p1104
g7
(g8
g9
NtRp1105
(dp1106
g12
g1104
sg13
I1
sg14
(dp1107
sbsS'FP102825.15'
p1108
g7
(g8
g9
NtRp1109
(dp1110
g12
g1108
sg13
I1
sg14
(dp1111
sbsS'CP002165.1'
p1112
g7
(g8
g9
NtRp1113
(dp1114
g12
g1112
sg13
I1
sg14
(dp1115
sbsS'CR354385.15'
p1116
g7
(g8
g9
NtRp1117
(dp1118
g12
g1116
sg13
I1
sg14
(dp1119
sbsS'AC010679.6'
p1120
g7
(g8
g9
NtRp1121
(dp1122
g12
g1120
sg13
I1
sg14
(dp1123
sbsS'AK128721.1'
p1124
g7
(g8
g9
NtRp1125
(dp1126
g12
g1124
sg13
I1
sg14
(dp1127
sbsS'FQ311871.1'
p1128
g7
(g8
g9
NtRp1129
(dp1130
g12
g1128
sg13
I1
sg14
(dp1131
sbsS'AL672187.12'
p1132
g7
(g8
g9
NtRp1133
(dp1134
g12
g1132
sg13
I1
sg14
(dp1135
sbsS'AM483486.2'
p1136
g7
(g8
g9
NtRp1137
(dp1138
g12
g1136
sg13
I2
sg14
(dp1139
sbsS'U08110.1'
p1140
g7
(g8
g9
NtRp1141
(dp1142
g12
g1140
sg13
I1
sg14
(dp1143
S'U08110.1'
p1144
I1
ssbsS'X52446.1'
p1145
g7
(g8
g9
NtRp1146
(dp1147
g12
g1145
sg13
I1
sg14
(dp1148
S'X52446.1'
p1149
I1
ssbsS'CR392024.15'
p1150
g7
(g8
g9
NtRp1151
(dp1152
g12
g1150
sg13
I1
sg14
(dp1153
sbsS'AC063926.36'
p1154
g7
(g8
g9
NtRp1155
(dp1156
g12
g1154
sg13
I1
sg14
(dp1157
sbsS'FR799615.2'
p1158
g7
(g8
g9
NtRp1159
(dp1160
g12
g1158
sg13
I1
sg14
(dp1161
sbsS'AC020941.5'
p1162
g7
(g8
g9
NtRp1163
(dp1164
g12
g1162
sg13
I7
sg14
(dp1165
sbsS'AC122848.3'
p1166
g7
(g8
g9
NtRp1167
(dp1168
g12
g1166
sg13
I1
sg14
(dp1169
sbsS'AK293561.1'
p1170
g7
(g8
g9
NtRp1171
(dp1172
g12
g1170
sg13
I1
sg14
(dp1173
S'AK293561.1'
p1174
I1
ssbsS'AC007892.4'
p1175
g7
(g8
g9
NtRp1176
(dp1177
g12
g1175
sg13
I1
sg14
(dp1178
sbsS'XM_720248.1'
p1179
g7
(g8
g9
NtRp1180
(dp1181
g12
g1179
sg13
I1
sg14
(dp1182
S'XM_720248.1'
p1183
I1
ssbsS'AC188055.1'
p1184
g7
(g8
g9
NtRp1185
(dp1186
g12
g1184
sg13
I1
sg14
(dp1187
sbsS'AC011696.4'
p1188
g7
(g8
g9
NtRp1189
(dp1190
g12
g1188
sg13
I1
sg14
(dp1191
sbsS'AC242646.4'
p1192
g7
(g8
g9
NtRp1193
(dp1194
g12
g1192
sg13
I1
sg14
(dp1195
sbsS'FN564434.1'
p1196
g7
(g8
g9
NtRp1197
(dp1198
g12
g1196
sg13
I1
sg14
(dp1199
sbsS'Z64559.1'
p1200
g7
(g8
g9
NtRp1201
(dp1202
g12
g1200
sg13
I1
sg14
(dp1203
sbsS'AC197853.3'
p1204
g7
(g8
g9
NtRp1205
(dp1206
g12
g1204
sg13
I1
sg14
(dp1207
sbsS'AM434769.2'
p1208
g7
(g8
g9
NtRp1209
(dp1210
g12
g1208
sg13
I1
sg14
(dp1211
sbsS'HQ525580.1'
p1212
g7
(g8
g9
NtRp1213
(dp1214
g12
g1212
sg13
I1
sg14
(dp1215
sbsS'GQ196525.1'
p1216
g7
(g8
g9
NtRp1217
(dp1218
g12
g1216
sg13
I2
sg14
(dp1219
sbsS'AC006253.4'
p1220
g7
(g8
g9
NtRp1221
(dp1222
g12
g1220
sg13
I2
sg14
(dp1223
sbsS'AC215898.1'
p1224
g7
(g8
g9
NtRp1225
(dp1226
g12
g1224
sg13
I1
sg14
(dp1227
sbsS'NG_032162.1'
p1228
g7
(g8
g9
NtRp1229
(dp1230
g12
g1228
sg13
I1
sg14
(dp1231
sbsS'AL356108.12'
p1232
g7
(g8
g9
NtRp1233
(dp1234
g12
g1232
sg13
I1
sg14
(dp1235
sbsS'AM464865.2'
p1236
g7
(g8
g9
NtRp1237
(dp1238
g12
g1236
sg13
I2
sg14
(dp1239
sbsS'CU468097.4'
p1240
g7
(g8
g9
NtRp1241
(dp1242
g12
g1240
sg13
I1
sg14
(dp1243
sbsS'AL592296.16'
p1244
g7
(g8
g9
NtRp1245
(dp1246
g12
g1244
sg13
I1
sg14
(dp1247
sbsS'AL136168.4'
p1248
g7
(g8
g9
NtRp1249
(dp1250
g12
g1248
sg13
I1
sg14
(dp1251
sbsS'BX000454.33'
p1252
g7
(g8
g9
NtRp1253
(dp1254
g12
g1252
sg13
I4
sg14
(dp1255
sbsS'AC084852.4'
p1256
g7
(g8
g9
NtRp1257
(dp1258
g12
g1256
sg13
I1
sg14
(dp1259
sbsS'AY927544.1'
p1260
g7
(g8
g9
NtRp1261
(dp1262
g12
g1260
sg13
I1
sg14
(dp1263
sbsS'FP565721.2'
p1264
g7
(g8
g9
NtRp1265
(dp1266
g12
g1264
sg13
I1
sg14
(dp1267
sbsS'AP000436.5'
p1268
g7
(g8
g9
NtRp1269
(dp1270
g12
g1268
sg13
I1
sg14
(dp1271
sbsS'AC034150.6'
p1272
g7
(g8
g9
NtRp1273
(dp1274
g12
g1272
sg13
I1
sg14
(dp1275
sbsS'AC018952.9'
p1276
g7
(g8
g9
NtRp1277
(dp1278
g12
g1276
sg13
I1
sg14
(dp1279
sbsS'FR796460.1'
p1280
g7
(g8
g9
NtRp1281
(dp1282
g12
g1280
sg13
I1
sg14
(dp1283
sbsS'AC154550.2'
p1284
g7
(g8
g9
NtRp1285
(dp1286
g12
g1284
sg13
I1
sg14
(dp1287
sbsS'AC202278.2'
p1288
g7
(g8
g9
NtRp1289
(dp1290
g12
g1288
sg13
I1
sg14
(dp1291
sbsS'AC243298.3'
p1292
g7
(g8
g9
NtRp1293
(dp1294
g12
g1292
sg13
I1
sg14
(dp1295
sbsS'NG_007880.1'
p1296
g7
(g8
g9
NtRp1297
(dp1298
g12
g1296
sg13
I1
sg14
(dp1299
sbsS'AC191156.5'
p1300
g7
(g8
g9
NtRp1301
(dp1302
g12
g1300
sg13
I1
sg14
(dp1303
sbsS'AC068614.5'
p1304
g7
(g8
g9
NtRp1305
(dp1306
g12
g1304
sg13
I1
sg14
(dp1307
sbsS'AM476951.2'
p1308
g7
(g8
g9
NtRp1309
(dp1310
g12
g1308
sg13
I2
sg14
(dp1311
sbsS'AC190220.1'
p1312
g7
(g8
g9
NtRp1313
(dp1314
g12
g1312
sg13
I1
sg14
(dp1315
sbsS'AL096843.12'
p1316
g7
(g8
g9
NtRp1317
(dp1318
g12
g1316
sg13
I1
sg14
(dp1319
sbsS'JN221279.1'
p1320
g7
(g8
g9
NtRp1321
(dp1322
g12
g1320
sg13
I1
sg14
(dp1323
sbsS'AC160845.1'
p1324
g7
(g8
g9
NtRp1325
(dp1326
g12
g1324
sg13
I1
sg14
(dp1327
sbsS'AL035530.11'
p1328
g7
(g8
g9
NtRp1329
(dp1330
g12
g1328
sg13
I1
sg14
(dp1331
sbsS'AC005537.2'
p1332
g7
(g8
g9
NtRp1333
(dp1334
g12
g1332
sg13
I1
sg14
(dp1335
sbsS'AC023595.19'
p1336
g7
(g8
g9
NtRp1337
(dp1338
g12
g1336
sg13
I4
sg14
(dp1339
sbsS'AC107389.4'
p1340
g7
(g8
g9
NtRp1341
(dp1342
g12
g1340
sg13
I1
sg14
(dp1343
sbsS'AC147977.2'
p1344
g7
(g8
g9
NtRp1345
(dp1346
g12
g1344
sg13
I1
sg14
(dp1347
sbsS'AY064315.1'
p1348
g7
(g8
g9
NtRp1349
(dp1350
g12
g1348
sg13
I1
sg14
(dp1351
sbsS'BS000579.1'
p1352
g7
(g8
g9
NtRp1353
(dp1354
g12
g1352
sg13
I1
sg14
(dp1355
sbsS'AC012172.7'
p1356
g7
(g8
g9
NtRp1357
(dp1358
g12
g1356
sg13
I1
sg14
(dp1359
sbsS'AC139426.2'
p1360
g7
(g8
g9
NtRp1361
(dp1362
g12
g1360
sg13
I1
sg14
(dp1363
sbsS'FP236638.8'
p1364
g7
(g8
g9
NtRp1365
(dp1366
g12
g1364
sg13
I1
sg14
(dp1367
sbsS'AL023693.25'
p1368
g7
(g8
g9
NtRp1369
(dp1370
g12
g1368
sg13
I2
sg14
(dp1371
sbsS'GU499466.1'
p1372
g7
(g8
g9
NtRp1373
(dp1374
g12
g1372
sg13
I2
sg14
(dp1375
sbsS'AL833414.1'
p1376
g7
(g8
g9
NtRp1377
(dp1378
g12
g1376
sg13
I1
sg14
(dp1379
sbsS'AC200580.6'
p1380
g7
(g8
g9
NtRp1381
(dp1382
g12
g1380
sg13
I19
sg14
(dp1383
sbsS'AL356269.10'
p1384
g7
(g8
g9
NtRp1385
(dp1386
g12
g1384
sg13
I1
sg14
(dp1387
sbsS'CR626875.10'
p1388
g7
(g8
g9
NtRp1389
(dp1390
g12
g1388
sg13
I1
sg14
(dp1391
sbsS'AM454215.2'
p1392
g7
(g8
g9
NtRp1393
(dp1394
g12
g1392
sg13
I1
sg14
(dp1395
sbsS'AC021015.4'
p1396
g7
(g8
g9
NtRp1397
(dp1398
g12
g1396
sg13
I3
sg14
(dp1399
sbsS'AL591108.18'
p1400
g7
(g8
g9
NtRp1401
(dp1402
g12
g1400
sg13
I1
sg14
(dp1403
sbsS'FJ525882.1'
p1404
g7
(g8
g9
NtRp1405
(dp1406
g12
g1404
sg13
I1
sg14
(dp1407
sbsS'NG_031853.2'
p1408
g7
(g8
g9
NtRp1409
(dp1410
g12
g1408
sg13
I3
sg14
(dp1411
sbsS'AC183834.3'
p1412
g7
(g8
g9
NtRp1413
(dp1414
g12
g1412
sg13
I1
sg14
(dp1415
sbsS'AK267339.1'
p1416
g7
(g8
g9
NtRp1417
(dp1418
g12
g1416
sg13
I16
sg14
(dp1419
sbsS'CP000633.1'
p1420
g7
(g8
g9
NtRp1421
(dp1422
g12
g1420
sg13
I1
sg14
(dp1423
S'CP000633.1'
p1424
I1
ssbsS'AF025422.1'
p1425
g7
(g8
g9
NtRp1426
(dp1427
g12
g1425
sg13
I1
sg14
(dp1428
sbsS'JN931293.1'
p1429
g7
(g8
g9
NtRp1430
(dp1431
g12
g1429
sg13
I3
sg14
(dp1432
sbsS'JN923304.1'
p1433
g7
(g8
g9
NtRp1434
(dp1435
g12
g1433
sg13
I1
sg14
(dp1436
sbsS'BX649480.3'
p1437
g7
(g8
g9
NtRp1438
(dp1439
g12
g1437
sg13
I3
sg14
(dp1440
sbsS'CT025564.10'
p1441
g7
(g8
g9
NtRp1442
(dp1443
g12
g1441
sg13
I1
sg14
(dp1444
sbsS'HQ525598.1'
p1445
g7
(g8
g9
NtRp1446
(dp1447
g12
g1445
sg13
I1
sg14
(dp1448
sbsS'AC191971.14'
p1449
g7
(g8
g9
NtRp1450
(dp1451
g12
g1449
sg13
I1
sg14
(dp1452
sbsS'AC093380.6'
p1453
g7
(g8
g9
NtRp1454
(dp1455
g12
g1453
sg13
I1
sg14
(dp1456
sbsS'AL662785.5'
p1457
g7
(g8
g9
NtRp1458
(dp1459
g12
g1457
sg13
I1
sg14
(dp1460
sbsS'AC160934.2'
p1461
g7
(g8
g9
NtRp1462
(dp1463
g12
g1461
sg13
I1
sg14
(dp1464
sbsS'AC129805.7'
p1465
g7
(g8
g9
NtRp1466
(dp1467
g12
g1465
sg13
I1
sg14
(dp1468
sbsS'AC104597.3'
p1469
g7
(g8
g9
NtRp1470
(dp1471
g12
g1469
sg13
I1
sg14
(dp1472
sbsS'AC018809.5'
p1473
g7
(g8
g9
NtRp1474
(dp1475
g12
g1473
sg13
I1
sg14
(dp1476
sbsS'XM_670755.1'
p1477
g7
(g8
g9
NtRp1478
(dp1479
g12
g1477
sg13
I1
sg14
(dp1480
S'XM_670755.1'
p1481
I1
ssbsS'BS000597.1'
p1482
g7
(g8
g9
NtRp1483
(dp1484
g12
g1482
sg13
I1
sg14
(dp1485
sbsS'AC187990.1'
p1486
g7
(g8
g9
NtRp1487
(dp1488
g12
g1486
sg13
I14
sg14
(dp1489
sbsS'AC153566.12'
p1490
g7
(g8
g9
NtRp1491
(dp1492
g12
g1490
sg13
I4
sg14
(dp1493
sbsS'AC198146.2'
p1494
g7
(g8
g9
NtRp1495
(dp1496
g12
g1494
sg13
I1
sg14
(dp1497
sbsS'HE580274.1'
p1498
g7
(g8
g9
NtRp1499
(dp1500
g12
g1498
sg13
I1
sg14
(dp1501
sbsS'AC151572.2'
p1502
g7
(g8
g9
NtRp1503
(dp1504
g12
g1502
sg13
I1
sg14
(dp1505
sbsS'AF049588.1'
p1506
g7
(g8
g9
NtRp1507
(dp1508
g12
g1506
sg13
I1
sg14
(dp1509
sbsS'AC226744.2'
p1510
g7
(g8
g9
NtRp1511
(dp1512
g12
g1510
sg13
I1
sg14
(dp1513
sbsS'AL161491.2'
p1514
g7
(g8
g9
NtRp1515
(dp1516
g12
g1514
sg13
I1
sg14
(dp1517
sbsS'AC146264.3'
p1518
g7
(g8
g9
NtRp1519
(dp1520
g12
g1518
sg13
I1
sg14
(dp1521
sbsS'AL109924.20'
p1522
g7
(g8
g9
NtRp1523
(dp1524
g12
g1522
sg13
I1
sg14
(dp1525
sbsS'AL121755.23'
p1526
g7
(g8
g9
NtRp1527
(dp1528
g12
g1526
sg13
I1
sg14
(dp1529
sbsS'HQ541789.1'
p1530
g7
(g8
g9
NtRp1531
(dp1532
g12
g1530
sg13
I1
sg14
(dp1533
sbsS'AC084239.1'
p1534
g7
(g8
g9
NtRp1535
(dp1536
g12
g1534
sg13
I1
sg14
(dp1537
sbsS'Z59459.1'
p1538
g7
(g8
g9
NtRp1539
(dp1540
g12
g1538
sg13
I1
sg14
(dp1541
sbsS'XM_002826166.1'
p1542
g7
(g8
g9
NtRp1543
(dp1544
g12
g1542
sg13
I1
sg14
(dp1545
sbsS'AC243628.3'
p1546
g7
(g8
g9
NtRp1547
(dp1548
g12
g1546
sg13
I3
sg14
(dp1549
sbsS'AF012570.1'
p1550
g7
(g8
g9
NtRp1551
(dp1552
g12
g1550
sg13
I1
sg14
(dp1553
sbsS'FO082810.4'
p1554
g7
(g8
g9
NtRp1555
(dp1556
g12
g1554
sg13
I2
sg14
(dp1557
sbsS'AY225461.2'
p1558
g7
(g8
g9
NtRp1559
(dp1560
g12
g1558
sg13
I1
sg14
(dp1561
sbsS'AC182581.3'
p1562
g7
(g8
g9
NtRp1563
(dp1564
g12
g1562
sg13
I1
sg14
(dp1565
sbsS'AC145855.2'
p1566
g7
(g8
g9
NtRp1567
(dp1568
g12
g1566
sg13
I1
sg14
(dp1569
sbsS'AL023513.1'
p1570
g7
(g8
g9
NtRp1571
(dp1572
g12
g1570
sg13
I1
sg14
(dp1573
sbsS'AC007220.4'
p1574
g7
(g8
g9
NtRp1575
(dp1576
g12
g1574
sg13
I3
sg14
(dp1577
sbsS'XM_003807455.1'
p1578
g7
(g8
g9
NtRp1579
(dp1580
g12
g1578
sg13
I1
sg14
(dp1581
sbsS'AC012569.18'
p1582
g7
(g8
g9
NtRp1583
(dp1584
g12
g1582
sg13
I1
sg14
(dp1585
sbsS'AP005209.3'
p1586
g7
(g8
g9
NtRp1587
(dp1588
g12
g1586
sg13
I1
sg14
(dp1589
sbsS'NG_016388.1'
p1590
g7
(g8
g9
NtRp1591
(dp1592
g12
g1590
sg13
I1
sg14
(dp1593
sbsS'AM449585.2'
p1594
g7
(g8
g9
NtRp1595
(dp1596
g12
g1594
sg13
I1
sg14
(dp1597
sbsS'HQ525316.1'
p1598
g7
(g8
g9
NtRp1599
(dp1600
g12
g1598
sg13
I1
sg14
(dp1601
sbsS'AL157996.8'
p1602
g7
(g8
g9
NtRp1603
(dp1604
g12
g1602
sg13
I1
sg14
(dp1605
sbsS'AC127370.3'
p1606
g7
(g8
g9
NtRp1607
(dp1608
g12
g1606
sg13
I2
sg14
(dp1609
sbsS'AC007560.4'
p1610
g7
(g8
g9
NtRp1611
(dp1612
g12
g1610
sg13
I2
sg14
(dp1613
sbsS'AC022872.4'
p1614
g7
(g8
g9
NtRp1615
(dp1616
g12
g1614
sg13
I1
sg14
(dp1617
sbsS'FP245430.4'
p1618
g7
(g8
g9
NtRp1619
(dp1620
g12
g1618
sg13
I2
sg14
(dp1621
sbsS'X72623.1'
p1622
g7
(g8
g9
NtRp1623
(dp1624
g12
g1622
sg13
I3
sg14
(dp1625
sbsS'AC009743.1'
p1626
g7
(g8
g9
NtRp1627
(dp1628
g12
g1626
sg13
I2
sg14
(dp1629
sbsS'AC106704.7'
p1630
g7
(g8
g9
NtRp1631
(dp1632
g12
g1630
sg13
I1
sg14
(dp1633
sbsS'Z82215.1'
p1634
g7
(g8
g9
NtRp1635
(dp1636
g12
g1634
sg13
I21
sg14
(dp1637
sbsS'AC174609.3'
p1638
g7
(g8
g9
NtRp1639
(dp1640
g12
g1638
sg13
I1
sg14
(dp1641
sbsS'AC189955.2'
p1642
g7
(g8
g9
NtRp1643
(dp1644
g12
g1642
sg13
I1
sg14
(dp1645
sbsS'XM_003679570.1'
p1646
g7
(g8
g9
NtRp1647
(dp1648
g12
g1646
sg13
I6
sg14
(dp1649
S'XM_003679570.1'
p1650
I6
ssbsS'AC192841.3'
p1651
g7
(g8
g9
NtRp1652
(dp1653
g12
g1651
sg13
I1
sg14
(dp1654
sbsS'HE575250.1'
p1655
g7
(g8
g9
NtRp1656
(dp1657
g12
g1655
sg13
I3
sg14
(dp1658
S'HE575250.1'
p1659
I3
ssbsS'BX294110.8'
p1660
g7
(g8
g9
NtRp1661
(dp1662
g12
g1660
sg13
I1
sg14
(dp1663
sbsS'AC243198.3'
p1664
g7
(g8
g9
NtRp1665
(dp1666
g12
g1664
sg13
I2
sg14
(dp1667
sbsS'AC090797.5'
p1668
g7
(g8
g9
NtRp1669
(dp1670
g12
g1668
sg13
I1
sg14
(dp1671
sbsS'AC116901.7'
p1672
g7
(g8
g9
NtRp1673
(dp1674
g12
g1672
sg13
I1
sg14
(dp1675
sbsS'AC007783.26'
p1676
g7
(g8
g9
NtRp1677
(dp1678
g12
g1676
sg13
I1
sg14
(dp1679
sbsS'FR718694.1'
p1680
g7
(g8
g9
NtRp1681
(dp1682
g12
g1680
sg13
I1
sg14
(dp1683
sbsS'FJ529451.1'
p1684
g7
(g8
g9
NtRp1685
(dp1686
g12
g1684
sg13
I1
sg14
(dp1687
sbsS'JN772195.1'
p1688
g7
(g8
g9
NtRp1689
(dp1690
g12
g1688
sg13
I1
sg14
(dp1691
sbsS'BX682238.10'
p1692
g7
(g8
g9
NtRp1693
(dp1694
g12
g1692
sg13
I1
sg14
(dp1695
sbsS'AC105357.7'
p1696
g7
(g8
g9
NtRp1697
(dp1698
g12
g1696
sg13
I1
sg14
(dp1699
sbsS'AC190283.8'
p1700
g7
(g8
g9
NtRp1701
(dp1702
g12
g1700
sg13
I1
sg14
(dp1703
sbsS'AC117376.3'
p1704
g7
(g8
g9
NtRp1705
(dp1706
g12
g1704
sg13
I1
sg14
(dp1707
sbsS'AC110072.3'
p1708
g7
(g8
g9
NtRp1709
(dp1710
g12
g1708
sg13
I2
sg14
(dp1711
sbsS'AC025156.21'
p1712
g7
(g8
g9
NtRp1713
(dp1714
g12
g1712
sg13
I1
sg14
(dp1715
sbsS'HM488208.1'
p1716
g7
(g8
g9
NtRp1717
(dp1718
g12
g1716
sg13
I1
sg14
(dp1719
sbsS'XM_002830421.1'
p1720
g7
(g8
g9
NtRp1721
(dp1722
g12
g1720
sg13
I1
sg14
(dp1723
sbsS'CT033785.8'
p1724
g7
(g8
g9
NtRp1725
(dp1726
g12
g1724
sg13
I1
sg14
(dp1727
sbsS'AC140921.2'
p1728
g7
(g8
g9
NtRp1729
(dp1730
g12
g1728
sg13
I1
sg14
(dp1731
sbsS'AC005019.1'
p1732
g7
(g8
g9
NtRp1733
(dp1734
g12
g1732
sg13
I1
sg14
(dp1735
sbsS'AC211241.5'
p1736
g7
(g8
g9
NtRp1737
(dp1738
g12
g1736
sg13
I1
sg14
(dp1739
sbsS'AJ302782.1'
p1740
g7
(g8
g9
NtRp1741
(dp1742
g12
g1740
sg13
I1
sg14
(dp1743
sbsS'AC097468.3'
p1744
g7
(g8
g9
NtRp1745
(dp1746
g12
g1744
sg13
I1
sg14
(dp1747
sbsS'CU927996.3'
p1748
g7
(g8
g9
NtRp1749
(dp1750
g12
g1748
sg13
I1
sg14
(dp1751
sbsS'AC092378.4'
p1752
g7
(g8
g9
NtRp1753
(dp1754
g12
g1752
sg13
I1
sg14
(dp1755
sbsS'AC145543.3'
p1756
g7
(g8
g9
NtRp1757
(dp1758
g12
g1756
sg13
I1
sg14
(dp1759
sbsS'HE576758.1'
p1760
g7
(g8
g9
NtRp1761
(dp1762
g12
g1760
sg13
I1
sg14
(dp1763
sbsS'AP011116.1'
p1764
g7
(g8
g9
NtRp1765
(dp1766
g12
g1764
sg13
I1
sg14
(dp1767
sbsS'AC009471.5'
p1768
g7
(g8
g9
NtRp1769
(dp1770
g12
g1768
sg13
I1
sg14
(dp1771
sbsS'AP000344.1'
p1772
g7
(g8
g9
NtRp1773
(dp1774
g12
g1772
sg13
I1
sg14
(dp1775
sbsS'AM463739.2'
p1776
g7
(g8
g9
NtRp1777
(dp1778
g12
g1776
sg13
I3
sg14
(dp1779
sbsS'FQ310507.3'
p1780
g7
(g8
g9
NtRp1781
(dp1782
g12
g1780
sg13
I4
sg14
(dp1783
S'FQ310507.3'
p1784
I1
ssbsS'AK032398.1'
p1785
g7
(g8
g9
NtRp1786
(dp1787
g12
g1785
sg13
I1
sg14
(dp1788
sbsS'AC241497.4'
p1789
g7
(g8
g9
NtRp1790
(dp1791
g12
g1789
sg13
I1
sg14
(dp1792
sbsS'AC118647.4'
p1793
g7
(g8
g9
NtRp1794
(dp1795
g12
g1793
sg13
I1
sg14
(dp1796
sbsS'AC091960.4'
p1797
g7
(g8
g9
NtRp1798
(dp1799
g12
g1797
sg13
I1
sg14
(dp1800
sbsS'AL157781.8'
p1801
g7
(g8
g9
NtRp1802
(dp1803
g12
g1801
sg13
I2
sg14
(dp1804
sbsS'AJ297042.1'
p1805
g7
(g8
g9
NtRp1806
(dp1807
g12
g1805
sg13
I4
sg14
(dp1808
sbsS'NG_015843.1'
p1809
g7
(g8
g9
NtRp1810
(dp1811
g12
g1809
sg13
I1
sg14
(dp1812
sbsS'AC138624.4'
p1813
g7
(g8
g9
NtRp1814
(dp1815
g12
g1813
sg13
I2
sg14
(dp1816
sbsS'BA000025.2'
p1817
g7
(g8
g9
NtRp1818
(dp1819
g12
g1817
sg13
I1
sg14
(dp1820
sbsS'AC239618.4'
p1821
g7
(g8
g9
NtRp1822
(dp1823
g12
g1821
sg13
I1
sg14
(dp1824
sbsS'HM488175.1'
p1825
g7
(g8
g9
NtRp1826
(dp1827
g12
g1825
sg13
I6
sg14
(dp1828
sbsS'AL451054.22'
p1829
g7
(g8
g9
NtRp1830
(dp1831
g12
g1829
sg13
I1
sg14
(dp1832
sbsS'XM_002437362.1'
p1833
g7
(g8
g9
NtRp1834
(dp1835
g12
g1833
sg13
I1
sg14
(dp1836
S'XM_002437362.1'
p1837
I1
ssbsS'AC007844.32'
p1838
g7
(g8
g9
NtRp1839
(dp1840
g12
g1838
sg13
I1
sg14
(dp1841
sbsS'BX294013.1'
p1842
g7
(g8
g9
NtRp1843
(dp1844
g12
g1842
sg13
I1
sg14
(dp1845
sbsS'CR626941.10'
p1846
g7
(g8
g9
NtRp1847
(dp1848
g12
g1846
sg13
I1
sg14
(dp1849
sbsS'L12216.1'
p1850
g7
(g8
g9
NtRp1851
(dp1852
g12
g1850
sg13
I3
sg14
(dp1853
sbsS'AC183800.2'
p1854
g7
(g8
g9
NtRp1855
(dp1856
g12
g1854
sg13
I2
sg14
(dp1857
sbsS'AC008982.5'
p1858
g7
(g8
g9
NtRp1859
(dp1860
g12
g1858
sg13
I1
sg14
(dp1861
sbsS'AJ305401.1'
p1862
g7
(g8
g9
NtRp1863
(dp1864
g12
g1862
sg13
I1
sg14
(dp1865
sbsS'DQ995508.1'
p1866
g7
(g8
g9
NtRp1867
(dp1868
g12
g1866
sg13
I2
sg14
(dp1869
sbsS'AM480701.2'
p1870
g7
(g8
g9
NtRp1871
(dp1872
g12
g1870
sg13
I1
sg14
(dp1873
S'AM480701.2'
p1874
I1
ssbsS'AC055733.16'
p1875
g7
(g8
g9
NtRp1876
(dp1877
g12
g1875
sg13
I1
sg14
(dp1878
sbsS'JF776631.1'
p1879
g7
(g8
g9
NtRp1880
(dp1881
g12
g1879
sg13
I2
sg14
(dp1882
sbsS'AL357332.11'
p1883
g7
(g8
g9
NtRp1884
(dp1885
g12
g1883
sg13
I1
sg14
(dp1886
sbsS'AP006226.1'
p1887
g7
(g8
g9
NtRp1888
(dp1889
g12
g1887
sg13
I1
sg14
(dp1890
sbsS'AC138364.8'
p1891
g7
(g8
g9
NtRp1892
(dp1893
g12
g1891
sg13
I1
sg14
(dp1894
sbsS'AM458370.2'
p1895
g7
(g8
g9
NtRp1896
(dp1897
g12
g1895
sg13
I2
sg14
(dp1898
sbsS'AC123786.6'
p1899
g7
(g8
g9
NtRp1900
(dp1901
g12
g1899
sg13
I1
sg14
(dp1902
sbsS'AL731784.3'
p1903
g7
(g8
g9
NtRp1904
(dp1905
g12
g1903
sg13
I1
sg14
(dp1906
sbsS'HE601624.1'
p1907
g7
(g8
g9
NtRp1908
(dp1909
g12
g1907
sg13
I1
sg14
(dp1910
sbsS'AC226393.3'
p1911
g7
(g8
g9
NtRp1912
(dp1913
g12
g1911
sg13
I2
sg14
(dp1914
sbsS'AC154335.1'
p1915
g7
(g8
g9
NtRp1916
(dp1917
g12
g1915
sg13
I1
sg14
(dp1918
sbsS'AC104626.3'
p1919
g7
(g8
g9
NtRp1920
(dp1921
g12
g1919
sg13
I1
sg14
(dp1922
sbsS'AC104236.2'
p1923
g7
(g8
g9
NtRp1924
(dp1925
g12
g1923
sg13
I1
sg14
(dp1926
sbsS'AC142181.3'
p1927
g7
(g8
g9
NtRp1928
(dp1929
g12
g1927
sg13
I1
sg14
(dp1930
sbsS'AL137218.5'
p1931
g7
(g8
g9
NtRp1932
(dp1933
g12
g1931
sg13
I1
sg14
(dp1934
sbsS'HE601626.1'
p1935
g7
(g8
g9
NtRp1936
(dp1937
g12
g1935
sg13
I2
sg14
(dp1938
sbsS'GU922685.1'
p1939
g7
(g8
g9
NtRp1940
(dp1941
g12
g1939
sg13
I3
sg14
(dp1942
sbsS'HQ525656.1'
p1943
g7
(g8
g9
NtRp1944
(dp1945
g12
g1943
sg13
I6
sg14
(dp1946
sbsS'AC093611.2'
p1947
g7
(g8
g9
NtRp1948
(dp1949
g12
g1947
sg13
I1
sg14
(dp1950
sbsS'AL355802.13'
p1951
g7
(g8
g9
NtRp1952
(dp1953
g12
g1951
sg13
I1
sg14
(dp1954
sbsS'AC182233.2'
p1955
g7
(g8
g9
NtRp1956
(dp1957
g12
g1955
sg13
I1
sg14
(dp1958
sbsS'AM477430.2'
p1959
g7
(g8
g9
NtRp1960
(dp1961
g12
g1959
sg13
I1
sg14
(dp1962
sbsS'AL034452.8'
p1963
g7
(g8
g9
NtRp1964
(dp1965
g12
g1963
sg13
I1
sg14
(dp1966
sbsS'AC107881.16'
p1967
g7
(g8
g9
NtRp1968
(dp1969
g12
g1967
sg13
I8
sg14
(dp1970
sbsS'AC192829.3'
p1971
g7
(g8
g9
NtRp1972
(dp1973
g12
g1971
sg13
I1
sg14
(dp1974
sbsS'AC116669.7'
p1975
g7
(g8
g9
NtRp1976
(dp1977
g12
g1975
sg13
I3
sg14
(dp1978
sbsS'AC243839.1'
p1979
g7
(g8
g9
NtRp1980
(dp1981
g12
g1979
sg13
I2
sg14
(dp1982
sbsS'XM_003810193.1'
p1983
g7
(g8
g9
NtRp1984
(dp1985
g12
g1983
sg13
I3
sg14
(dp1986
S'XM_003810193.1'
p1987
I3
ssbsS'AC185324.4'
p1988
g7
(g8
g9
NtRp1989
(dp1990
g12
g1988
sg13
I2
sg14
(dp1991
sbsS'AC131685.4'
p1992
g7
(g8
g9
NtRp1993
(dp1994
g12
g1992
sg13
I1
sg14
(dp1995
sbsS'AF162137.2'
p1996
g7
(g8
g9
NtRp1997
(dp1998
g12
g1996
sg13
I1
sg14
(dp1999
sbsS'AC145613.2'
p2000
g7
(g8
g9
NtRp2001
(dp2002
g12
g2000
sg13
I3
sg14
(dp2003
sbsS'AC187629.3'
p2004
g7
(g8
g9
NtRp2005
(dp2006
g12
g2004
sg13
I1
sg14
(dp2007
sbsS'NG_023228.1'
p2008
g7
(g8
g9
NtRp2009
(dp2010
g12
g2008
sg13
I6
sg14
(dp2011
sbsS'CT025638.1'
p2012
g7
(g8
g9
NtRp2013
(dp2014
g12
g2012
sg13
I1
sg14
(dp2015
sbsS'CU041404.15'
p2016
g7
(g8
g9
NtRp2017
(dp2018
g12
g2016
sg13
I4
sg14
(dp2019
sbsS'FJ529493.1'
p2020
g7
(g8
g9
NtRp2021
(dp2022
g12
g2020
sg13
I1
sg14
(dp2023
sbsS'AC091144.12'
p2024
g7
(g8
g9
NtRp2025
(dp2026
g12
g2024
sg13
I1
sg14
(dp2027
sbsS'AM442172.2'
p2028
g7
(g8
g9
NtRp2029
(dp2030
g12
g2028
sg13
I3
sg14
(dp2031
sbsS'XM_003576243.1'
p2032
g7
(g8
g9
NtRp2033
(dp2034
g12
g2032
sg13
I1
sg14
(dp2035
S'XM_003576243.1'
p2036
I1
ssbsS'AC194763.3'
p2037
g7
(g8
g9
NtRp2038
(dp2039
g12
g2037
sg13
I1
sg14
(dp2040
sbsS'CP002305.1'
p2041
g7
(g8
g9
NtRp2042
(dp2043
g12
g2041
sg13
I2
sg14
(dp2044
S'CP002305.1'
p2045
I2
ssbsS'AC231555.3'
p2046
g7
(g8
g9
NtRp2047
(dp2048
g12
g2046
sg13
I2
sg14
(dp2049
sbsS'CP000721.1'
p2050
g7
(g8
g9
NtRp2051
(dp2052
g12
g2050
sg13
I1
sg14
(dp2053
sbsS'AC145195.2'
p2054
g7
(g8
g9
NtRp2055
(dp2056
g12
g2054
sg13
I1
sg14
(dp2057
sbsS'JN957231.1'
p2058
g7
(g8
g9
NtRp2059
(dp2060
g12
g2058
sg13
I1
sg14
(dp2061
sbsS'NM_022166.3'
p2062
g7
(g8
g9
NtRp2063
(dp2064
g12
g2062
sg13
I1
sg14
(dp2065
sbsS'AC102751.14'
p2066
g7
(g8
g9
NtRp2067
(dp2068
g12
g2066
sg13
I1
sg14
(dp2069
sbsS'AL359851.19'
p2070
g7
(g8
g9
NtRp2071
(dp2072
g12
g2070
sg13
I1
sg14
(dp2073
sbsS'AC011339.5'
p2074
g7
(g8
g9
NtRp2075
(dp2076
g12
g2074
sg13
I1
sg14
(dp2077
sbsS'AC011744.8'
p2078
g7
(g8
g9
NtRp2079
(dp2080
g12
g2078
sg13
I1
sg14
(dp2081
sbsS'AC132614.3'
p2082
g7
(g8
g9
NtRp2083
(dp2084
g12
g2082
sg13
I1
sg14
(dp2085
sbsS'AY377343.1'
p2086
g7
(g8
g9
NtRp2087
(dp2088
g12
g2086
sg13
I1
sg14
(dp2089
S'AY377343.1'
p2090
I1
ssbsS'JF720345.1'
p2091
g7
(g8
g9
NtRp2092
(dp2093
g12
g2091
sg13
I2
sg14
(dp2094
sbsS'AC104989.11'
p2095
g7
(g8
g9
NtRp2096
(dp2097
g12
g2095
sg13
I3
sg14
(dp2098
sbsS'AC091493.2'
p2099
g7
(g8
g9
NtRp2100
(dp2101
g12
g2099
sg13
I1
sg14
(dp2102
sbsS'AC194993.3'
p2103
g7
(g8
g9
NtRp2104
(dp2105
g12
g2103
sg13
I1
sg14
(dp2106
sbsS'AC109458.3'
p2107
g7
(g8
g9
NtRp2108
(dp2109
g12
g2107
sg13
I2
sg14
(dp2110
sbsS'AL669831.13'
p2111
g7
(g8
g9
NtRp2112
(dp2113
g12
g2111
sg13
I2
sg14
(dp2114
sbsS'AF254136.3'
p2115
g7
(g8
g9
NtRp2116
(dp2117
g12
g2115
sg13
I1
sg14
(dp2118
sbsS'DQ290176.1'
p2119
g7
(g8
g9
NtRp2120
(dp2121
g12
g2119
sg13
I1
sg14
(dp2122
sbsS'AC204673.3'
p2123
g7
(g8
g9
NtRp2124
(dp2125
g12
g2123
sg13
I1
sg14
(dp2126
sbsS'JN956763.1'
p2127
g7
(g8
g9
NtRp2128
(dp2129
g12
g2127
sg13
I1
sg14
(dp2130
sbsS'AC105415.2'
p2131
g7
(g8
g9
NtRp2132
(dp2133
g12
g2131
sg13
I1
sg14
(dp2134
sbsS'AL606510.10'
p2135
g7
(g8
g9
NtRp2136
(dp2137
g12
g2135
sg13
I1
sg14
(dp2138
sbsS'AC189114.2'
p2139
g7
(g8
g9
NtRp2140
(dp2141
g12
g2139
sg13
I1
sg14
(dp2142
sbsS'AL929392.11'
p2143
g7
(g8
g9
NtRp2144
(dp2145
g12
g2143
sg13
I1
sg14
(dp2146
sbsS'AC109446.2'
p2147
g7
(g8
g9
NtRp2148
(dp2149
g12
g2147
sg13
I1
sg14
(dp2150
sbsS'AK255006.1'
p2151
g7
(g8
g9
NtRp2152
(dp2153
g12
g2151
sg13
I3
sg14
(dp2154
sbsS'AL158212.15'
p2155
g7
(g8
g9
NtRp2156
(dp2157
g12
g2155
sg13
I1
sg14
(dp2158
sbsS'XM_003669999.1'
p2159
g7
(g8
g9
NtRp2160
(dp2161
g12
g2159
sg13
I1
sg14
(dp2162
S'XM_003669999.1'
p2163
I1
ssbsS'AC011754.8'
p2164
g7
(g8
g9
NtRp2165
(dp2166
g12
g2164
sg13
I1
sg14
(dp2167
sbsS'AC115282.2'
p2168
g7
(g8
g9
NtRp2169
(dp2170
g12
g2168
sg13
I2
sg14
(dp2171
sbsS'AC174053.1'
p2172
g7
(g8
g9
NtRp2173
(dp2174
g12
g2172
sg13
I1
sg14
(dp2175
sbsS'AC012323.7'
p2176
g7
(g8
g9
NtRp2177
(dp2178
g12
g2176
sg13
I1
sg14
(dp2179
sbssS'num_cds_alns'
p2180
NsS'num_reads_with_no_alns'
p2181
I2
sS'num_reads'
p2182
I200
sS'num_host_read_alns'
p2183
NsS'proteins'
p2184
c__builtin__
set
p2185
((lp2186
S'XP_806387.1'
p2187
aS'XP_002437407.1'
p2188
aS'XP_002798879.1'
p2189
aS'XP_001975484.1'
p2190
aS'XP_001325288.1'
p2191
aS'XP_002921902.1'
p2192
aS'BAG57033.1'
p2193
aS'NP_000047.1'
p2194
aS'CAC88730.1'
p2195
aS'CAN77532.1'
p2196
aS'XP_725341.1'
p2197
aS'XP_002431018.1'
p2198
aS'XP_743690.1'
p2199
aS'AAA17681.1'
p2200
aS'XP_002274950.1'
p2201
aS'AAA51812.1'
p2202
aS'CBK76098.1'
p2203
aS'XP_003821592.1'
p2204
aS'XP_003576291.1'
p2205
aS'XP_675847.1'
p2206
aS'XP_003810242.1'
p2207
aS'CBN81642.1'
p2208
aS'AAB60517.1'
p2209
aS'BAA14389.1'
p2210
aS'ADQ17975.1'
p2211
aS'XP_003810241.1'
p2212
aS'CAA53481.1'
p2213
aS'BAH00684.1'
p2214
aS'XP_002264197.1'
p2215
aS'XP_001767354.1'
p2216
aS'XP_806719.1'
p2217
aS'XP_003846201.1'
p2218
aS'AAQ95122.1'
p2219
aS'CAD21715.2'
p2220
aS'XP_003670047.1'
p2221
aS'XP_646300.1'
p2222
aS'XP_003821327.1'
p2223
aS'CCE90407.1'
p2224
aS'XP_003679618.1'
p2225
aS'ACJ37505.1'
p2226
aS'CAA36685.1'
p2227
aS'CCC55948.1'
p2228
aS'ABO96426.1'
p2229
aS'ACM36314.1'
p2230
atRp2231
sS'num_cdss'
p2232
NsS'num_read_alns'
p2233
I951
sS'num_missing_records'
p2234
(dp2235
S'missing_records_percentage'
p2236
S'76.27%'
p2237
sS'num_all_records'
p2238
I531
sg2234
I405
ssS'time'
p2239
cdatetime
time
p2240
(S'\x10&\x06\x0e/q'
tRp2241
sS'taxs'
p2242
NsS'num_cdss_with_no_alns'
p2243
NsbsI2
(istatistics.SolverStatistics
StatData
p2244
(dp2245
g4
(dp2246
g6
g7
(g8
g9
NtRp2247
(dp2248
g12
g6
sg13
I1
sg14
(dp2249
sbsg16
g7
(g8
g9
NtRp2250
(dp2251
g12
g16
sg13
I1
sg14
(dp2252
g20
I1
ssbsg21
g7
(g8
g9
NtRp2253
(dp2254
g12
g21
sg13
I1
sg14
(dp2255
sbsg25
g7
(g8
g9
NtRp2256
(dp2257
g12
g25
sg13
I2
sg14
(dp2258
sbsg29
g7
(g8
g9
NtRp2259
(dp2260
g12
g29
sg13
I4
sg14
(dp2261
sbsg33
g7
(g8
g9
NtRp2262
(dp2263
g12
g33
sg13
I1
sg14
(dp2264
sbsg37
g7
(g8
g9
NtRp2265
(dp2266
g12
g37
sg13
I1
sg14
(dp2267
sbsg41
g7
(g8
g9
NtRp2268
(dp2269
g12
g41
sg13
I1
sg14
(dp2270
sbsg45
g7
(g8
g9
NtRp2271
(dp2272
g12
g45
sg13
I1
sg14
(dp2273
sbsg49
g7
(g8
g9
NtRp2274
(dp2275
g12
g49
sg13
I1
sg14
(dp2276
sbsg53
g7
(g8
g9
NtRp2277
(dp2278
g12
g53
sg13
I1
sg14
(dp2279
sbsg57
g7
(g8
g9
NtRp2280
(dp2281
g12
g57
sg13
I1
sg14
(dp2282
g61
I1
ssbsg62
g7
(g8
g9
NtRp2283
(dp2284
g12
g62
sg13
I1
sg14
(dp2285
sbsg66
g7
(g8
g9
NtRp2286
(dp2287
g12
g66
sg13
I1
sg14
(dp2288
sbsg70
g7
(g8
g9
NtRp2289
(dp2290
g12
g70
sg13
I1
sg14
(dp2291
sbsg74
g7
(g8
g9
NtRp2292
(dp2293
g12
g74
sg13
I1
sg14
(dp2294
g78
I1
ssbsg79
g7
(g8
g9
NtRp2295
(dp2296
g12
g79
sg13
I1
sg14
(dp2297
sbsg83
g7
(g8
g9
NtRp2298
(dp2299
g12
g83
sg13
I1
sg14
(dp2300
sbsg87
g7
(g8
g9
NtRp2301
(dp2302
g12
g87
sg13
I1
sg14
(dp2303
sbsg91
g7
(g8
g9
NtRp2304
(dp2305
g12
g91
sg13
I1
sg14
(dp2306
sbsg95
g7
(g8
g9
NtRp2307
(dp2308
g12
g95
sg13
I1
sg14
(dp2309
sbsg99
g7
(g8
g9
NtRp2310
(dp2311
g12
g99
sg13
I1
sg14
(dp2312
g103
I1
ssbsg104
g7
(g8
g9
NtRp2313
(dp2314
g12
g104
sg13
I1
sg14
(dp2315
sbsg108
g7
(g8
g9
NtRp2316
(dp2317
g12
g108
sg13
I1
sg14
(dp2318
g112
I1
ssbsg113
g7
(g8
g9
NtRp2319
(dp2320
g12
g113
sg13
I14
sg14
(dp2321
sbsg117
g7
(g8
g9
NtRp2322
(dp2323
g12
g117
sg13
I1
sg14
(dp2324
sbsg121
g7
(g8
g9
NtRp2325
(dp2326
g12
g121
sg13
I2
sg14
(dp2327
sbsg125
g7
(g8
g9
NtRp2328
(dp2329
g12
g125
sg13
I1
sg14
(dp2330
sbsg129
g7
(g8
g9
NtRp2331
(dp2332
g12
g129
sg13
I2
sg14
(dp2333
sbsg133
g7
(g8
g9
NtRp2334
(dp2335
g12
g133
sg13
I2
sg14
(dp2336
sbsg137
g7
(g8
g9
NtRp2337
(dp2338
g12
g137
sg13
I1
sg14
(dp2339
sbsg141
g7
(g8
g9
NtRp2340
(dp2341
g12
g141
sg13
I1
sg14
(dp2342
sbsg145
g7
(g8
g9
NtRp2343
(dp2344
g12
g145
sg13
I1
sg14
(dp2345
sbsg149
g7
(g8
g9
NtRp2346
(dp2347
g12
g149
sg13
I2
sg14
(dp2348
sbsg153
g7
(g8
g9
NtRp2349
(dp2350
g12
g153
sg13
I3
sg14
(dp2351
sbsg157
g7
(g8
g9
NtRp2352
(dp2353
g12
g157
sg13
I1
sg14
(dp2354
sbsg161
g7
(g8
g9
NtRp2355
(dp2356
g12
g161
sg13
I1
sg14
(dp2357
sbsg165
g7
(g8
g9
NtRp2358
(dp2359
g12
g165
sg13
I2
sg14
(dp2360
sbsg169
g7
(g8
g9
NtRp2361
(dp2362
g12
g169
sg13
I1
sg14
(dp2363
sbsg173
g7
(g8
g9
NtRp2364
(dp2365
g12
g173
sg13
I14
sg14
(dp2366
sbsg177
g7
(g8
g9
NtRp2367
(dp2368
g12
g177
sg13
I1
sg14
(dp2369
g181
I1
ssbsg182
g7
(g8
g9
NtRp2370
(dp2371
g12
g182
sg13
I1
sg14
(dp2372
sbsg186
g7
(g8
g9
NtRp2373
(dp2374
g12
g186
sg13
I1
sg14
(dp2375
sbsg190
g7
(g8
g9
NtRp2376
(dp2377
g12
g190
sg13
I2
sg14
(dp2378
sbsg194
g7
(g8
g9
NtRp2379
(dp2380
g12
g194
sg13
I1
sg14
(dp2381
sbsg198
g7
(g8
g9
NtRp2382
(dp2383
g12
g198
sg13
I1
sg14
(dp2384
sbsg202
g7
(g8
g9
NtRp2385
(dp2386
g12
g202
sg13
I1
sg14
(dp2387
sbsg206
g7
(g8
g9
NtRp2388
(dp2389
g12
g206
sg13
I1
sg14
(dp2390
sbsg210
g7
(g8
g9
NtRp2391
(dp2392
g12
g210
sg13
I1
sg14
(dp2393
sbsg214
g7
(g8
g9
NtRp2394
(dp2395
g12
g214
sg13
I1
sg14
(dp2396
sbsg218
g7
(g8
g9
NtRp2397
(dp2398
g12
g218
sg13
I6
sg14
(dp2399
sbsg222
g7
(g8
g9
NtRp2400
(dp2401
g12
g222
sg13
I1
sg14
(dp2402
sbsg226
g7
(g8
g9
NtRp2403
(dp2404
g12
g226
sg13
I1
sg14
(dp2405
sbsg230
g7
(g8
g9
NtRp2406
(dp2407
g12
g230
sg13
I1
sg14
(dp2408
sbsg234
g7
(g8
g9
NtRp2409
(dp2410
g12
g234
sg13
I1
sg14
(dp2411
sbsg238
g7
(g8
g9
NtRp2412
(dp2413
g12
g238
sg13
I1
sg14
(dp2414
sbsg242
g7
(g8
g9
NtRp2415
(dp2416
g12
g242
sg13
I1
sg14
(dp2417
sbsg246
g7
(g8
g9
NtRp2418
(dp2419
g12
g246
sg13
I1
sg14
(dp2420
sbsg250
g7
(g8
g9
NtRp2421
(dp2422
g12
g250
sg13
I1
sg14
(dp2423
sbsg254
g7
(g8
g9
NtRp2424
(dp2425
g12
g254
sg13
I1
sg14
(dp2426
sbsg258
g7
(g8
g9
NtRp2427
(dp2428
g12
g258
sg13
I2
sg14
(dp2429
g262
I2
ssbsg263
g7
(g8
g9
NtRp2430
(dp2431
g12
g263
sg13
I1
sg14
(dp2432
sbsg267
g7
(g8
g9
NtRp2433
(dp2434
g12
g267
sg13
I1
sg14
(dp2435
sbsg271
g7
(g8
g9
NtRp2436
(dp2437
g12
g271
sg13
I1
sg14
(dp2438
g275
I1
ssbsg276
g7
(g8
g9
NtRp2439
(dp2440
g12
g276
sg13
I1
sg14
(dp2441
sbsg280
g7
(g8
g9
NtRp2442
(dp2443
g12
g280
sg13
I1
sg14
(dp2444
g284
I1
ssbsg285
g7
(g8
g9
NtRp2445
(dp2446
g12
g285
sg13
I3
sg14
(dp2447
sbsg289
g7
(g8
g9
NtRp2448
(dp2449
g12
g289
sg13
I1
sg14
(dp2450
sbsg293
g7
(g8
g9
NtRp2451
(dp2452
g12
g293
sg13
I1
sg14
(dp2453
sbsg297
g7
(g8
g9
NtRp2454
(dp2455
g12
g297
sg13
I1
sg14
(dp2456
sbsg301
g7
(g8
g9
NtRp2457
(dp2458
g12
g301
sg13
I1
sg14
(dp2459
sbsg305
g7
(g8
g9
NtRp2460
(dp2461
g12
g305
sg13
I2
sg14
(dp2462
g309
I2
ssbsg310
g7
(g8
g9
NtRp2463
(dp2464
g12
g310
sg13
I1
sg14
(dp2465
sbsg314
g7
(g8
g9
NtRp2466
(dp2467
g12
g314
sg13
I1
sg14
(dp2468
sbsg318
g7
(g8
g9
NtRp2469
(dp2470
g12
g318
sg13
I2
sg14
(dp2471
sbsg322
g7
(g8
g9
NtRp2472
(dp2473
g12
g322
sg13
I2
sg14
(dp2474
sbsg326
g7
(g8
g9
NtRp2475
(dp2476
g12
g326
sg13
I2
sg14
(dp2477
sbsg330
g7
(g8
g9
NtRp2478
(dp2479
g12
g330
sg13
I3
sg14
(dp2480
sbsg334
g7
(g8
g9
NtRp2481
(dp2482
g12
g334
sg13
I15
sg14
(dp2483
sbsg338
g7
(g8
g9
NtRp2484
(dp2485
g12
g338
sg13
I3
sg14
(dp2486
sbsg342
g7
(g8
g9
NtRp2487
(dp2488
g12
g342
sg13
I1
sg14
(dp2489
sbsg346
g7
(g8
g9
NtRp2490
(dp2491
g12
g346
sg13
I1
sg14
(dp2492
sbsg350
g7
(g8
g9
NtRp2493
(dp2494
g12
g350
sg13
I1
sg14
(dp2495
g354
I1
ssbsg355
g7
(g8
g9
NtRp2496
(dp2497
g12
g355
sg13
I1
sg14
(dp2498
g359
I1
ssbsg360
g7
(g8
g9
NtRp2499
(dp2500
g12
g360
sg13
I1
sg14
(dp2501
sbsg364
g7
(g8
g9
NtRp2502
(dp2503
g12
g364
sg13
I1
sg14
(dp2504
sbsg368
g7
(g8
g9
NtRp2505
(dp2506
g12
g368
sg13
I1
sg14
(dp2507
sbsg372
g7
(g8
g9
NtRp2508
(dp2509
g12
g372
sg13
I2
sg14
(dp2510
sbsg376
g7
(g8
g9
NtRp2511
(dp2512
g12
g376
sg13
I2
sg14
(dp2513
g380
I2
ssbsg381
g7
(g8
g9
NtRp2514
(dp2515
g12
g381
sg13
I4
sg14
(dp2516
sbsg385
g7
(g8
g9
NtRp2517
(dp2518
g12
g385
sg13
I3
sg14
(dp2519
sbsg389
g7
(g8
g9
NtRp2520
(dp2521
g12
g389
sg13
I2
sg14
(dp2522
sbsg393
g7
(g8
g9
NtRp2523
(dp2524
g12
g393
sg13
I1
sg14
(dp2525
sbsg397
g7
(g8
g9
NtRp2526
(dp2527
g12
g397
sg13
I1
sg14
(dp2528
sbsg401
g7
(g8
g9
NtRp2529
(dp2530
g12
g401
sg13
I1
sg14
(dp2531
sbsg405
g7
(g8
g9
NtRp2532
(dp2533
g12
g405
sg13
I1
sg14
(dp2534
sbsg409
g7
(g8
g9
NtRp2535
(dp2536
g12
g409
sg13
I1
sg14
(dp2537
sbsg413
g7
(g8
g9
NtRp2538
(dp2539
g12
g413
sg13
I1
sg14
(dp2540
g417
I1
ssbsg418
g7
(g8
g9
NtRp2541
(dp2542
g12
g418
sg13
I1
sg14
(dp2543
sbsg422
g7
(g8
g9
NtRp2544
(dp2545
g12
g422
sg13
I1
sg14
(dp2546
sbsg426
g7
(g8
g9
NtRp2547
(dp2548
g12
g426
sg13
I1
sg14
(dp2549
sbsg430
g7
(g8
g9
NtRp2550
(dp2551
g12
g430
sg13
I1
sg14
(dp2552
g434
I1
ssbsg435
g7
(g8
g9
NtRp2553
(dp2554
g12
g435
sg13
I1
sg14
(dp2555
sbsg439
g7
(g8
g9
NtRp2556
(dp2557
g12
g439
sg13
I1
sg14
(dp2558
sbsg443
g7
(g8
g9
NtRp2559
(dp2560
g12
g443
sg13
I1
sg14
(dp2561
sbsg447
g7
(g8
g9
NtRp2562
(dp2563
g12
g447
sg13
I1
sg14
(dp2564
sbsg451
g7
(g8
g9
NtRp2565
(dp2566
g12
g451
sg13
I1
sg14
(dp2567
sbsg455
g7
(g8
g9
NtRp2568
(dp2569
g12
g455
sg13
I2
sg14
(dp2570
sbsg459
g7
(g8
g9
NtRp2571
(dp2572
g12
g459
sg13
I15
sg14
(dp2573
sbsg463
g7
(g8
g9
NtRp2574
(dp2575
g12
g463
sg13
I3
sg14
(dp2576
sbsg467
g7
(g8
g9
NtRp2577
(dp2578
g12
g467
sg13
I1
sg14
(dp2579
sbsg471
g7
(g8
g9
NtRp2580
(dp2581
g12
g471
sg13
I1
sg14
(dp2582
g475
I1
ssbsg476
g7
(g8
g9
NtRp2583
(dp2584
g12
g476
sg13
I1
sg14
(dp2585
sbsg480
g7
(g8
g9
NtRp2586
(dp2587
g12
g480
sg13
I1
sg14
(dp2588
g484
I1
ssbsg485
g7
(g8
g9
NtRp2589
(dp2590
g12
g485
sg13
I1
sg14
(dp2591
g489
I1
ssbsg490
g7
(g8
g9
NtRp2592
(dp2593
g12
g490
sg13
I1
sg14
(dp2594
sbsg494
g7
(g8
g9
NtRp2595
(dp2596
g12
g494
sg13
I1
sg14
(dp2597
sbsg498
g7
(g8
g9
NtRp2598
(dp2599
g12
g498
sg13
I1
sg14
(dp2600
sbsg502
g7
(g8
g9
NtRp2601
(dp2602
g12
g502
sg13
I1
sg14
(dp2603
sbsg506
g7
(g8
g9
NtRp2604
(dp2605
g12
g506
sg13
I1
sg14
(dp2606
sbsg510
g7
(g8
g9
NtRp2607
(dp2608
g12
g510
sg13
I1
sg14
(dp2609
sbsg514
g7
(g8
g9
NtRp2610
(dp2611
g12
g514
sg13
I1
sg14
(dp2612
sbsg518
g7
(g8
g9
NtRp2613
(dp2614
g12
g518
sg13
I1
sg14
(dp2615
sbsg522
g7
(g8
g9
NtRp2616
(dp2617
g12
g522
sg13
I1
sg14
(dp2618
sbsg526
g7
(g8
g9
NtRp2619
(dp2620
g12
g526
sg13
I1
sg14
(dp2621
sbsg530
g7
(g8
g9
NtRp2622
(dp2623
g12
g530
sg13
I1
sg14
(dp2624
g534
I1
ssbsg535
g7
(g8
g9
NtRp2625
(dp2626
g12
g535
sg13
I1
sg14
(dp2627
sbsg539
g7
(g8
g9
NtRp2628
(dp2629
g12
g539
sg13
I5
sg14
(dp2630
sbsg543
g7
(g8
g9
NtRp2631
(dp2632
g12
g543
sg13
I2
sg14
(dp2633
sbsg547
g7
(g8
g9
NtRp2634
(dp2635
g12
g547
sg13
I1
sg14
(dp2636
sbsg551
g7
(g8
g9
NtRp2637
(dp2638
g12
g551
sg13
I3
sg14
(dp2639
sbsg555
g7
(g8
g9
NtRp2640
(dp2641
g12
g555
sg13
I3
sg14
(dp2642
g559
I3
ssbsg560
g7
(g8
g9
NtRp2643
(dp2644
g12
g560
sg13
I1
sg14
(dp2645
sbsg564
g7
(g8
g9
NtRp2646
(dp2647
g12
g564
sg13
I15
sg14
(dp2648
sbsg568
g7
(g8
g9
NtRp2649
(dp2650
g12
g568
sg13
I1
sg14
(dp2651
sbsg572
g7
(g8
g9
NtRp2652
(dp2653
g12
g572
sg13
I1
sg14
(dp2654
sbsg576
g7
(g8
g9
NtRp2655
(dp2656
g12
g576
sg13
I1
sg14
(dp2657
sbsg580
g7
(g8
g9
NtRp2658
(dp2659
g12
g580
sg13
I6
sg14
(dp2660
g584
I6
ssbsg585
g7
(g8
g9
NtRp2661
(dp2662
g12
g585
sg13
I1
sg14
(dp2663
sbsg589
g7
(g8
g9
NtRp2664
(dp2665
g12
g589
sg13
I3
sg14
(dp2666
sbsg593
g7
(g8
g9
NtRp2667
(dp2668
g12
g593
sg13
I1
sg14
(dp2669
sbsg597
g7
(g8
g9
NtRp2670
(dp2671
g12
g597
sg13
I1
sg14
(dp2672
sbsg601
g7
(g8
g9
NtRp2673
(dp2674
g12
g601
sg13
I1
sg14
(dp2675
sbsg605
g7
(g8
g9
NtRp2676
(dp2677
g12
g605
sg13
I6
sg14
(dp2678
sbsg609
g7
(g8
g9
NtRp2679
(dp2680
g12
g609
sg13
I1
sg14
(dp2681
sbsg613
g7
(g8
g9
NtRp2682
(dp2683
g12
g613
sg13
I1
sg14
(dp2684
g617
I1
ssbsg618
g7
(g8
g9
NtRp2685
(dp2686
g12
g618
sg13
I1
sg14
(dp2687
sbsg622
g7
(g8
g9
NtRp2688
(dp2689
g12
g622
sg13
I5
sg14
(dp2690
sbsg626
g7
(g8
g9
NtRp2691
(dp2692
g12
g626
sg13
I1
sg14
(dp2693
sbsg630
g7
(g8
g9
NtRp2694
(dp2695
g12
g630
sg13
I1
sg14
(dp2696
sbsg634
g7
(g8
g9
NtRp2697
(dp2698
g12
g634
sg13
I8
sg14
(dp2699
sbsg638
g7
(g8
g9
NtRp2700
(dp2701
g12
g638
sg13
I1
sg14
(dp2702
sbsg642
g7
(g8
g9
NtRp2703
(dp2704
g12
g642
sg13
I1
sg14
(dp2705
sbsg646
g7
(g8
g9
NtRp2706
(dp2707
g12
g646
sg13
I1
sg14
(dp2708
sbsg650
g7
(g8
g9
NtRp2709
(dp2710
g12
g650
sg13
I1
sg14
(dp2711
g654
I2
ssbsg655
g7
(g8
g9
NtRp2712
(dp2713
g12
g655
sg13
I1
sg14
(dp2714
sbsg659
g7
(g8
g9
NtRp2715
(dp2716
g12
g659
sg13
I1
sg14
(dp2717
sbsg663
g7
(g8
g9
NtRp2718
(dp2719
g12
g663
sg13
I1
sg14
(dp2720
sbsg667
g7
(g8
g9
NtRp2721
(dp2722
g12
g667
sg13
I1
sg14
(dp2723
sbsg671
g7
(g8
g9
NtRp2724
(dp2725
g12
g671
sg13
I4
sg14
(dp2726
sbsg675
g7
(g8
g9
NtRp2727
(dp2728
g12
g675
sg13
I1
sg14
(dp2729
sbsg679
g7
(g8
g9
NtRp2730
(dp2731
g12
g679
sg13
I1
sg14
(dp2732
sbsg683
g7
(g8
g9
NtRp2733
(dp2734
g12
g683
sg13
I3
sg14
(dp2735
sbsg687
g7
(g8
g9
NtRp2736
(dp2737
g12
g687
sg13
I1
sg14
(dp2738
sbsg691
g7
(g8
g9
NtRp2739
(dp2740
g12
g691
sg13
I2
sg14
(dp2741
sbsg695
g7
(g8
g9
NtRp2742
(dp2743
g12
g695
sg13
I1
sg14
(dp2744
sbsg699
g7
(g8
g9
NtRp2745
(dp2746
g12
g699
sg13
I1
sg14
(dp2747
sbsg703
g7
(g8
g9
NtRp2748
(dp2749
g12
g703
sg13
I3
sg14
(dp2750
g707
I2
ssbsg708
g7
(g8
g9
NtRp2751
(dp2752
g12
g708
sg13
I1
sg14
(dp2753
sbsg712
g7
(g8
g9
NtRp2754
(dp2755
g12
g712
sg13
I1
sg14
(dp2756
sbsg716
g7
(g8
g9
NtRp2757
(dp2758
g12
g716
sg13
I2
sg14
(dp2759
sbsg720
g7
(g8
g9
NtRp2760
(dp2761
g12
g720
sg13
I1
sg14
(dp2762
sbsg724
g7
(g8
g9
NtRp2763
(dp2764
g12
g724
sg13
I1
sg14
(dp2765
sbsg728
g7
(g8
g9
NtRp2766
(dp2767
g12
g728
sg13
I1
sg14
(dp2768
sbsg732
g7
(g8
g9
NtRp2769
(dp2770
g12
g732
sg13
I1
sg14
(dp2771
sbsg736
g7
(g8
g9
NtRp2772
(dp2773
g12
g736
sg13
I1
sg14
(dp2774
sbsg740
g7
(g8
g9
NtRp2775
(dp2776
g12
g740
sg13
I4
sg14
(dp2777
sbsg744
g7
(g8
g9
NtRp2778
(dp2779
g12
g744
sg13
I1
sg14
(dp2780
sbsg748
g7
(g8
g9
NtRp2781
(dp2782
g12
g748
sg13
I3
sg14
(dp2783
sbsg752
g7
(g8
g9
NtRp2784
(dp2785
g12
g752
sg13
I3
sg14
(dp2786
sbsg756
g7
(g8
g9
NtRp2787
(dp2788
g12
g756
sg13
I12
sg14
(dp2789
sbsg760
g7
(g8
g9
NtRp2790
(dp2791
g12
g760
sg13
I1
sg14
(dp2792
sbsg764
g7
(g8
g9
NtRp2793
(dp2794
g12
g764
sg13
I1
sg14
(dp2795
sbsg768
g7
(g8
g9
NtRp2796
(dp2797
g12
g768
sg13
I3
sg14
(dp2798
g772
I3
ssbsg773
g7
(g8
g9
NtRp2799
(dp2800
g12
g773
sg13
I2
sg14
(dp2801
sbsg777
g7
(g8
g9
NtRp2802
(dp2803
g12
g777
sg13
I2
sg14
(dp2804
sbsg781
g7
(g8
g9
NtRp2805
(dp2806
g12
g781
sg13
I1
sg14
(dp2807
sbsg785
g7
(g8
g9
NtRp2808
(dp2809
g12
g785
sg13
I1
sg14
(dp2810
sbsg789
g7
(g8
g9
NtRp2811
(dp2812
g12
g789
sg13
I2
sg14
(dp2813
sbsg793
g7
(g8
g9
NtRp2814
(dp2815
g12
g793
sg13
I1
sg14
(dp2816
sbsg797
g7
(g8
g9
NtRp2817
(dp2818
g12
g797
sg13
I1
sg14
(dp2819
sbsg801
g7
(g8
g9
NtRp2820
(dp2821
g12
g801
sg13
I1
sg14
(dp2822
sbsg805
g7
(g8
g9
NtRp2823
(dp2824
g12
g805
sg13
I1
sg14
(dp2825
sbsg809
g7
(g8
g9
NtRp2826
(dp2827
g12
g809
sg13
I1
sg14
(dp2828
sbsg813
g7
(g8
g9
NtRp2829
(dp2830
g12
g813
sg13
I1
sg14
(dp2831
sbsg817
g7
(g8
g9
NtRp2832
(dp2833
g12
g817
sg13
I2
sg14
(dp2834
sbsg821
g7
(g8
g9
NtRp2835
(dp2836
g12
g821
sg13
I11
sg14
(dp2837
sbsg825
g7
(g8
g9
NtRp2838
(dp2839
g12
g825
sg13
I1
sg14
(dp2840
sbsg829
g7
(g8
g9
NtRp2841
(dp2842
g12
g829
sg13
I1
sg14
(dp2843
sbsg833
g7
(g8
g9
NtRp2844
(dp2845
g12
g833
sg13
I1
sg14
(dp2846
sbsg837
g7
(g8
g9
NtRp2847
(dp2848
g12
g837
sg13
I1
sg14
(dp2849
sbsg841
g7
(g8
g9
NtRp2850
(dp2851
g12
g841
sg13
I1
sg14
(dp2852
sbsg845
g7
(g8
g9
NtRp2853
(dp2854
g12
g845
sg13
I14
sg14
(dp2855
sbsg849
g7
(g8
g9
NtRp2856
(dp2857
g12
g849
sg13
I1
sg14
(dp2858
sbsg853
g7
(g8
g9
NtRp2859
(dp2860
g12
g853
sg13
I1
sg14
(dp2861
sbsg857
g7
(g8
g9
NtRp2862
(dp2863
g12
g857
sg13
I1
sg14
(dp2864
sbsg861
g7
(g8
g9
NtRp2865
(dp2866
g12
g861
sg13
I1
sg14
(dp2867
sbsg865
g7
(g8
g9
NtRp2868
(dp2869
g12
g865
sg13
I1
sg14
(dp2870
sbsg869
g7
(g8
g9
NtRp2871
(dp2872
g12
g869
sg13
I1
sg14
(dp2873
sbsg873
g7
(g8
g9
NtRp2874
(dp2875
g12
g873
sg13
I1
sg14
(dp2876
sbsg877
g7
(g8
g9
NtRp2877
(dp2878
g12
g877
sg13
I1
sg14
(dp2879
sbsg881
g7
(g8
g9
NtRp2880
(dp2881
g12
g881
sg13
I3
sg14
(dp2882
sbsg885
g7
(g8
g9
NtRp2883
(dp2884
g12
g885
sg13
I1
sg14
(dp2885
sbsg889
g7
(g8
g9
NtRp2886
(dp2887
g12
g889
sg13
I1
sg14
(dp2888
sbsg893
g7
(g8
g9
NtRp2889
(dp2890
g12
g893
sg13
I1
sg14
(dp2891
sbsg897
g7
(g8
g9
NtRp2892
(dp2893
g12
g897
sg13
I2
sg14
(dp2894
sbsg901
g7
(g8
g9
NtRp2895
(dp2896
g12
g901
sg13
I1
sg14
(dp2897
sbsg905
g7
(g8
g9
NtRp2898
(dp2899
g12
g905
sg13
I1
sg14
(dp2900
sbsg909
g7
(g8
g9
NtRp2901
(dp2902
g12
g909
sg13
I1
sg14
(dp2903
sbsg913
g7
(g8
g9
NtRp2904
(dp2905
g12
g913
sg13
I1
sg14
(dp2906
sbsg917
g7
(g8
g9
NtRp2907
(dp2908
g12
g917
sg13
I1
sg14
(dp2909
sbsg921
g7
(g8
g9
NtRp2910
(dp2911
g12
g921
sg13
I6
sg14
(dp2912
sbsg925
g7
(g8
g9
NtRp2913
(dp2914
g12
g925
sg13
I1
sg14
(dp2915
sbsg929
g7
(g8
g9
NtRp2916
(dp2917
g12
g929
sg13
I1
sg14
(dp2918
sbsg933
g7
(g8
g9
NtRp2919
(dp2920
g12
g933
sg13
I1
sg14
(dp2921
sbsg937
g7
(g8
g9
NtRp2922
(dp2923
g12
g937
sg13
I1
sg14
(dp2924
sbsg941
g7
(g8
g9
NtRp2925
(dp2926
g12
g941
sg13
I1
sg14
(dp2927
sbsg945
g7
(g8
g9
NtRp2928
(dp2929
g12
g945
sg13
I4
sg14
(dp2930
g949
I4
ssbsg950
g7
(g8
g9
NtRp2931
(dp2932
g12
g950
sg13
I1
sg14
(dp2933
g954
I1
ssbsg955
g7
(g8
g9
NtRp2934
(dp2935
g12
g955
sg13
I2
sg14
(dp2936
sbsg959
g7
(g8
g9
NtRp2937
(dp2938
g12
g959
sg13
I2
sg14
(dp2939
sbsg963
g7
(g8
g9
NtRp2940
(dp2941
g12
g963
sg13
I1
sg14
(dp2942
sbsg967
g7
(g8
g9
NtRp2943
(dp2944
g12
g967
sg13
I1
sg14
(dp2945
sbsg971
g7
(g8
g9
NtRp2946
(dp2947
g12
g971
sg13
I1
sg14
(dp2948
sbsg975
g7
(g8
g9
NtRp2949
(dp2950
g12
g975
sg13
I1
sg14
(dp2951
sbsg979
g7
(g8
g9
NtRp2952
(dp2953
g12
g979
sg13
I1
sg14
(dp2954
sbsg983
g7
(g8
g9
NtRp2955
(dp2956
g12
g983
sg13
I1
sg14
(dp2957
sbsg987
g7
(g8
g9
NtRp2958
(dp2959
g12
g987
sg13
I1
sg14
(dp2960
sbsg991
g7
(g8
g9
NtRp2961
(dp2962
g12
g991
sg13
I1
sg14
(dp2963
sbsg995
g7
(g8
g9
NtRp2964
(dp2965
g12
g995
sg13
I1
sg14
(dp2966
sbsg999
g7
(g8
g9
NtRp2967
(dp2968
g12
g999
sg13
I1
sg14
(dp2969
sbsg1003
g7
(g8
g9
NtRp2970
(dp2971
g12
g1003
sg13
I1
sg14
(dp2972
sbsg1007
g7
(g8
g9
NtRp2973
(dp2974
g12
g1007
sg13
I5
sg14
(dp2975
sbsg1011
g7
(g8
g9
NtRp2976
(dp2977
g12
g1011
sg13
I1
sg14
(dp2978
sbsg1015
g7
(g8
g9
NtRp2979
(dp2980
g12
g1015
sg13
I1
sg14
(dp2981
sbsg1019
g7
(g8
g9
NtRp2982
(dp2983
g12
g1019
sg13
I2
sg14
(dp2984
sbsg1023
g7
(g8
g9
NtRp2985
(dp2986
g12
g1023
sg13
I3
sg14
(dp2987
sbsg1027
g7
(g8
g9
NtRp2988
(dp2989
g12
g1027
sg13
I1
sg14
(dp2990
sbsg1031
g7
(g8
g9
NtRp2991
(dp2992
g12
g1031
sg13
I2
sg14
(dp2993
sbsg1035
g7
(g8
g9
NtRp2994
(dp2995
g12
g1035
sg13
I1
sg14
(dp2996
sbsg1039
g7
(g8
g9
NtRp2997
(dp2998
g12
g1039
sg13
I1
sg14
(dp2999
sbsg1043
g7
(g8
g9
NtRp3000
(dp3001
g12
g1043
sg13
I3
sg14
(dp3002
sbsg1047
g7
(g8
g9
NtRp3003
(dp3004
g12
g1047
sg13
I1
sg14
(dp3005
sbsg1051
g7
(g8
g9
NtRp3006
(dp3007
g12
g1051
sg13
I1
sg14
(dp3008
sbsg1055
g7
(g8
g9
NtRp3009
(dp3010
g12
g1055
sg13
I1
sg14
(dp3011
sbsg1059
g7
(g8
g9
NtRp3012
(dp3013
g12
g1059
sg13
I1
sg14
(dp3014
sbsg1063
g7
(g8
g9
NtRp3015
(dp3016
g12
g1063
sg13
I1
sg14
(dp3017
sbsg1067
g7
(g8
g9
NtRp3018
(dp3019
g12
g1067
sg13
I1
sg14
(dp3020
sbsg1071
g7
(g8
g9
NtRp3021
(dp3022
g12
g1071
sg13
I17
sg14
(dp3023
sbsg1075
g7
(g8
g9
NtRp3024
(dp3025
g12
g1075
sg13
I1
sg14
(dp3026
sbsg1079
g7
(g8
g9
NtRp3027
(dp3028
g12
g1079
sg13
I1
sg14
(dp3029
g1083
I1
ssbsg1084
g7
(g8
g9
NtRp3030
(dp3031
g12
g1084
sg13
I2
sg14
(dp3032
sbsg1088
g7
(g8
g9
NtRp3033
(dp3034
g12
g1088
sg13
I4
sg14
(dp3035
sbsg1092
g7
(g8
g9
NtRp3036
(dp3037
g12
g1092
sg13
I1
sg14
(dp3038
sbsg1096
g7
(g8
g9
NtRp3039
(dp3040
g12
g1096
sg13
I2
sg14
(dp3041
sbsg1100
g7
(g8
g9
NtRp3042
(dp3043
g12
g1100
sg13
I1
sg14
(dp3044
sbsg1104
g7
(g8
g9
NtRp3045
(dp3046
g12
g1104
sg13
I1
sg14
(dp3047
sbsg1108
g7
(g8
g9
NtRp3048
(dp3049
g12
g1108
sg13
I1
sg14
(dp3050
sbsg1112
g7
(g8
g9
NtRp3051
(dp3052
g12
g1112
sg13
I1
sg14
(dp3053
sbsg1116
g7
(g8
g9
NtRp3054
(dp3055
g12
g1116
sg13
I1
sg14
(dp3056
sbsg1120
g7
(g8
g9
NtRp3057
(dp3058
g12
g1120
sg13
I1
sg14
(dp3059
sbsg1124
g7
(g8
g9
NtRp3060
(dp3061
g12
g1124
sg13
I1
sg14
(dp3062
sbsg1128
g7
(g8
g9
NtRp3063
(dp3064
g12
g1128
sg13
I1
sg14
(dp3065
sbsg1132
g7
(g8
g9
NtRp3066
(dp3067
g12
g1132
sg13
I1
sg14
(dp3068
sbsg1136
g7
(g8
g9
NtRp3069
(dp3070
g12
g1136
sg13
I2
sg14
(dp3071
sbsg1140
g7
(g8
g9
NtRp3072
(dp3073
g12
g1140
sg13
I1
sg14
(dp3074
g1144
I1
ssbsg1145
g7
(g8
g9
NtRp3075
(dp3076
g12
g1145
sg13
I1
sg14
(dp3077
g1149
I1
ssbsg1150
g7
(g8
g9
NtRp3078
(dp3079
g12
g1150
sg13
I1
sg14
(dp3080
sbsg1154
g7
(g8
g9
NtRp3081
(dp3082
g12
g1154
sg13
I1
sg14
(dp3083
sbsg1158
g7
(g8
g9
NtRp3084
(dp3085
g12
g1158
sg13
I1
sg14
(dp3086
sbsg1162
g7
(g8
g9
NtRp3087
(dp3088
g12
g1162
sg13
I7
sg14
(dp3089
sbsg1166
g7
(g8
g9
NtRp3090
(dp3091
g12
g1166
sg13
I1
sg14
(dp3092
sbsg1170
g7
(g8
g9
NtRp3093
(dp3094
g12
g1170
sg13
I1
sg14
(dp3095
g1174
I1
ssbsg1175
g7
(g8
g9
NtRp3096
(dp3097
g12
g1175
sg13
I1
sg14
(dp3098
sbsg1179
g7
(g8
g9
NtRp3099
(dp3100
g12
g1179
sg13
I1
sg14
(dp3101
g1183
I1
ssbsg1184
g7
(g8
g9
NtRp3102
(dp3103
g12
g1184
sg13
I1
sg14
(dp3104
sbsg1188
g7
(g8
g9
NtRp3105
(dp3106
g12
g1188
sg13
I1
sg14
(dp3107
sbsg1192
g7
(g8
g9
NtRp3108
(dp3109
g12
g1192
sg13
I1
sg14
(dp3110
sbsg1196
g7
(g8
g9
NtRp3111
(dp3112
g12
g1196
sg13
I1
sg14
(dp3113
sbsg1200
g7
(g8
g9
NtRp3114
(dp3115
g12
g1200
sg13
I1
sg14
(dp3116
sbsg1204
g7
(g8
g9
NtRp3117
(dp3118
g12
g1204
sg13
I1
sg14
(dp3119
sbsg1208
g7
(g8
g9
NtRp3120
(dp3121
g12
g1208
sg13
I1
sg14
(dp3122
sbsg1212
g7
(g8
g9
NtRp3123
(dp3124
g12
g1212
sg13
I1
sg14
(dp3125
sbsg1216
g7
(g8
g9
NtRp3126
(dp3127
g12
g1216
sg13
I2
sg14
(dp3128
sbsg1220
g7
(g8
g9
NtRp3129
(dp3130
g12
g1220
sg13
I2
sg14
(dp3131
sbsg1224
g7
(g8
g9
NtRp3132
(dp3133
g12
g1224
sg13
I1
sg14
(dp3134
sbsg1228
g7
(g8
g9
NtRp3135
(dp3136
g12
g1228
sg13
I1
sg14
(dp3137
sbsg1232
g7
(g8
g9
NtRp3138
(dp3139
g12
g1232
sg13
I1
sg14
(dp3140
sbsg1236
g7
(g8
g9
NtRp3141
(dp3142
g12
g1236
sg13
I2
sg14
(dp3143
sbsg1240
g7
(g8
g9
NtRp3144
(dp3145
g12
g1240
sg13
I1
sg14
(dp3146
sbsg1244
g7
(g8
g9
NtRp3147
(dp3148
g12
g1244
sg13
I1
sg14
(dp3149
sbsg1248
g7
(g8
g9
NtRp3150
(dp3151
g12
g1248
sg13
I1
sg14
(dp3152
sbsg1252
g7
(g8
g9
NtRp3153
(dp3154
g12
g1252
sg13
I4
sg14
(dp3155
sbsg1256
g7
(g8
g9
NtRp3156
(dp3157
g12
g1256
sg13
I1
sg14
(dp3158
sbsg1260
g7
(g8
g9
NtRp3159
(dp3160
g12
g1260
sg13
I1
sg14
(dp3161
sbsg1264
g7
(g8
g9
NtRp3162
(dp3163
g12
g1264
sg13
I1
sg14
(dp3164
sbsg1268
g7
(g8
g9
NtRp3165
(dp3166
g12
g1268
sg13
I1
sg14
(dp3167
sbsg1272
g7
(g8
g9
NtRp3168
(dp3169
g12
g1272
sg13
I1
sg14
(dp3170
sbsg1276
g7
(g8
g9
NtRp3171
(dp3172
g12
g1276
sg13
I1
sg14
(dp3173
sbsg1280
g7
(g8
g9
NtRp3174
(dp3175
g12
g1280
sg13
I1
sg14
(dp3176
sbsg1284
g7
(g8
g9
NtRp3177
(dp3178
g12
g1284
sg13
I1
sg14
(dp3179
sbsg1288
g7
(g8
g9
NtRp3180
(dp3181
g12
g1288
sg13
I1
sg14
(dp3182
sbsg1292
g7
(g8
g9
NtRp3183
(dp3184
g12
g1292
sg13
I1
sg14
(dp3185
sbsg1296
g7
(g8
g9
NtRp3186
(dp3187
g12
g1296
sg13
I1
sg14
(dp3188
sbsg1300
g7
(g8
g9
NtRp3189
(dp3190
g12
g1300
sg13
I1
sg14
(dp3191
sbsg1304
g7
(g8
g9
NtRp3192
(dp3193
g12
g1304
sg13
I1
sg14
(dp3194
sbsg1308
g7
(g8
g9
NtRp3195
(dp3196
g12
g1308
sg13
I2
sg14
(dp3197
sbsg1312
g7
(g8
g9
NtRp3198
(dp3199
g12
g1312
sg13
I1
sg14
(dp3200
sbsg1316
g7
(g8
g9
NtRp3201
(dp3202
g12
g1316
sg13
I1
sg14
(dp3203
sbsg1320
g7
(g8
g9
NtRp3204
(dp3205
g12
g1320
sg13
I1
sg14
(dp3206
sbsg1324
g7
(g8
g9
NtRp3207
(dp3208
g12
g1324
sg13
I1
sg14
(dp3209
sbsg1328
g7
(g8
g9
NtRp3210
(dp3211
g12
g1328
sg13
I1
sg14
(dp3212
sbsg1332
g7
(g8
g9
NtRp3213
(dp3214
g12
g1332
sg13
I1
sg14
(dp3215
sbsg1336
g7
(g8
g9
NtRp3216
(dp3217
g12
g1336
sg13
I4
sg14
(dp3218
sbsg1340
g7
(g8
g9
NtRp3219
(dp3220
g12
g1340
sg13
I1
sg14
(dp3221
sbsg1344
g7
(g8
g9
NtRp3222
(dp3223
g12
g1344
sg13
I1
sg14
(dp3224
sbsg1348
g7
(g8
g9
NtRp3225
(dp3226
g12
g1348
sg13
I1
sg14
(dp3227
sbsg1352
g7
(g8
g9
NtRp3228
(dp3229
g12
g1352
sg13
I1
sg14
(dp3230
sbsg1356
g7
(g8
g9
NtRp3231
(dp3232
g12
g1356
sg13
I1
sg14
(dp3233
sbsg1360
g7
(g8
g9
NtRp3234
(dp3235
g12
g1360
sg13
I1
sg14
(dp3236
sbsg1364
g7
(g8
g9
NtRp3237
(dp3238
g12
g1364
sg13
I1
sg14
(dp3239
sbsg1368
g7
(g8
g9
NtRp3240
(dp3241
g12
g1368
sg13
I2
sg14
(dp3242
sbsg1372
g7
(g8
g9
NtRp3243
(dp3244
g12
g1372
sg13
I2
sg14
(dp3245
sbsg1376
g7
(g8
g9
NtRp3246
(dp3247
g12
g1376
sg13
I1
sg14
(dp3248
sbsg1380
g7
(g8
g9
NtRp3249
(dp3250
g12
g1380
sg13
I19
sg14
(dp3251
sbsg1384
g7
(g8
g9
NtRp3252
(dp3253
g12
g1384
sg13
I1
sg14
(dp3254
sbsg1388
g7
(g8
g9
NtRp3255
(dp3256
g12
g1388
sg13
I1
sg14
(dp3257
sbsg1392
g7
(g8
g9
NtRp3258
(dp3259
g12
g1392
sg13
I1
sg14
(dp3260
sbsg1396
g7
(g8
g9
NtRp3261
(dp3262
g12
g1396
sg13
I3
sg14
(dp3263
sbsg1400
g7
(g8
g9
NtRp3264
(dp3265
g12
g1400
sg13
I1
sg14
(dp3266
sbsg1404
g7
(g8
g9
NtRp3267
(dp3268
g12
g1404
sg13
I1
sg14
(dp3269
sbsg1408
g7
(g8
g9
NtRp3270
(dp3271
g12
g1408
sg13
I3
sg14
(dp3272
sbsg1412
g7
(g8
g9
NtRp3273
(dp3274
g12
g1412
sg13
I1
sg14
(dp3275
sbsg1416
g7
(g8
g9
NtRp3276
(dp3277
g12
g1416
sg13
I16
sg14
(dp3278
sbsg1420
g7
(g8
g9
NtRp3279
(dp3280
g12
g1420
sg13
I1
sg14
(dp3281
g1424
I1
ssbsg1425
g7
(g8
g9
NtRp3282
(dp3283
g12
g1425
sg13
I1
sg14
(dp3284
sbsg1429
g7
(g8
g9
NtRp3285
(dp3286
g12
g1429
sg13
I3
sg14
(dp3287
sbsg1433
g7
(g8
g9
NtRp3288
(dp3289
g12
g1433
sg13
I1
sg14
(dp3290
sbsg1437
g7
(g8
g9
NtRp3291
(dp3292
g12
g1437
sg13
I3
sg14
(dp3293
sbsg1441
g7
(g8
g9
NtRp3294
(dp3295
g12
g1441
sg13
I1
sg14
(dp3296
sbsg1445
g7
(g8
g9
NtRp3297
(dp3298
g12
g1445
sg13
I1
sg14
(dp3299
sbsg1449
g7
(g8
g9
NtRp3300
(dp3301
g12
g1449
sg13
I1
sg14
(dp3302
sbsg1453
g7
(g8
g9
NtRp3303
(dp3304
g12
g1453
sg13
I1
sg14
(dp3305
sbsg1457
g7
(g8
g9
NtRp3306
(dp3307
g12
g1457
sg13
I1
sg14
(dp3308
sbsg1461
g7
(g8
g9
NtRp3309
(dp3310
g12
g1461
sg13
I1
sg14
(dp3311
sbsg1465
g7
(g8
g9
NtRp3312
(dp3313
g12
g1465
sg13
I1
sg14
(dp3314
sbsg1469
g7
(g8
g9
NtRp3315
(dp3316
g12
g1469
sg13
I1
sg14
(dp3317
sbsg1473
g7
(g8
g9
NtRp3318
(dp3319
g12
g1473
sg13
I1
sg14
(dp3320
sbsg1477
g7
(g8
g9
NtRp3321
(dp3322
g12
g1477
sg13
I1
sg14
(dp3323
g1481
I1
ssbsg1482
g7
(g8
g9
NtRp3324
(dp3325
g12
g1482
sg13
I1
sg14
(dp3326
sbsg1486
g7
(g8
g9
NtRp3327
(dp3328
g12
g1486
sg13
I14
sg14
(dp3329
sbsg1490
g7
(g8
g9
NtRp3330
(dp3331
g12
g1490
sg13
I4
sg14
(dp3332
sbsg1494
g7
(g8
g9
NtRp3333
(dp3334
g12
g1494
sg13
I1
sg14
(dp3335
sbsg1498
g7
(g8
g9
NtRp3336
(dp3337
g12
g1498
sg13
I1
sg14
(dp3338
sbsg1502
g7
(g8
g9
NtRp3339
(dp3340
g12
g1502
sg13
I1
sg14
(dp3341
sbsg1506
g7
(g8
g9
NtRp3342
(dp3343
g12
g1506
sg13
I1
sg14
(dp3344
sbsg1510
g7
(g8
g9
NtRp3345
(dp3346
g12
g1510
sg13
I1
sg14
(dp3347
sbsg1514
g7
(g8
g9
NtRp3348
(dp3349
g12
g1514
sg13
I1
sg14
(dp3350
sbsg1518
g7
(g8
g9
NtRp3351
(dp3352
g12
g1518
sg13
I1
sg14
(dp3353
sbsg1522
g7
(g8
g9
NtRp3354
(dp3355
g12
g1522
sg13
I1
sg14
(dp3356
sbsg1526
g7
(g8
g9
NtRp3357
(dp3358
g12
g1526
sg13
I1
sg14
(dp3359
sbsg1530
g7
(g8
g9
NtRp3360
(dp3361
g12
g1530
sg13
I1
sg14
(dp3362
sbsg1534
g7
(g8
g9
NtRp3363
(dp3364
g12
g1534
sg13
I1
sg14
(dp3365
sbsg1538
g7
(g8
g9
NtRp3366
(dp3367
g12
g1538
sg13
I1
sg14
(dp3368
sbsg1542
g7
(g8
g9
NtRp3369
(dp3370
g12
g1542
sg13
I1
sg14
(dp3371
sbsg1546
g7
(g8
g9
NtRp3372
(dp3373
g12
g1546
sg13
I3
sg14
(dp3374
sbsg1550
g7
(g8
g9
NtRp3375
(dp3376
g12
g1550
sg13
I1
sg14
(dp3377
sbsg1554
g7
(g8
g9
NtRp3378
(dp3379
g12
g1554
sg13
I2
sg14
(dp3380
sbsg1558
g7
(g8
g9
NtRp3381
(dp3382
g12
g1558
sg13
I1
sg14
(dp3383
sbsg1562
g7
(g8
g9
NtRp3384
(dp3385
g12
g1562
sg13
I1
sg14
(dp3386
sbsg1566
g7
(g8
g9
NtRp3387
(dp3388
g12
g1566
sg13
I1
sg14
(dp3389
sbsg1570
g7
(g8
g9
NtRp3390
(dp3391
g12
g1570
sg13
I1
sg14
(dp3392
sbsg1574
g7
(g8
g9
NtRp3393
(dp3394
g12
g1574
sg13
I3
sg14
(dp3395
sbsg1578
g7
(g8
g9
NtRp3396
(dp3397
g12
g1578
sg13
I1
sg14
(dp3398
sbsg1582
g7
(g8
g9
NtRp3399
(dp3400
g12
g1582
sg13
I1
sg14
(dp3401
sbsg1586
g7
(g8
g9
NtRp3402
(dp3403
g12
g1586
sg13
I1
sg14
(dp3404
sbsg1590
g7
(g8
g9
NtRp3405
(dp3406
g12
g1590
sg13
I1
sg14
(dp3407
sbsg1594
g7
(g8
g9
NtRp3408
(dp3409
g12
g1594
sg13
I1
sg14
(dp3410
sbsg1598
g7
(g8
g9
NtRp3411
(dp3412
g12
g1598
sg13
I1
sg14
(dp3413
sbsg1602
g7
(g8
g9
NtRp3414
(dp3415
g12
g1602
sg13
I1
sg14
(dp3416
sbsg1606
g7
(g8
g9
NtRp3417
(dp3418
g12
g1606
sg13
I2
sg14
(dp3419
sbsg1610
g7
(g8
g9
NtRp3420
(dp3421
g12
g1610
sg13
I2
sg14
(dp3422
sbsg1614
g7
(g8
g9
NtRp3423
(dp3424
g12
g1614
sg13
I1
sg14
(dp3425
sbsg1618
g7
(g8
g9
NtRp3426
(dp3427
g12
g1618
sg13
I2
sg14
(dp3428
sbsg1622
g7
(g8
g9
NtRp3429
(dp3430
g12
g1622
sg13
I3
sg14
(dp3431
sbsg1626
g7
(g8
g9
NtRp3432
(dp3433
g12
g1626
sg13
I2
sg14
(dp3434
sbsg1630
g7
(g8
g9
NtRp3435
(dp3436
g12
g1630
sg13
I1
sg14
(dp3437
sbsg1634
g7
(g8
g9
NtRp3438
(dp3439
g12
g1634
sg13
I21
sg14
(dp3440
sbsg1638
g7
(g8
g9
NtRp3441
(dp3442
g12
g1638
sg13
I1
sg14
(dp3443
sbsg1642
g7
(g8
g9
NtRp3444
(dp3445
g12
g1642
sg13
I1
sg14
(dp3446
sbsg1646
g7
(g8
g9
NtRp3447
(dp3448
g12
g1646
sg13
I6
sg14
(dp3449
g1650
I6
ssbsg1651
g7
(g8
g9
NtRp3450
(dp3451
g12
g1651
sg13
I1
sg14
(dp3452
sbsg1655
g7
(g8
g9
NtRp3453
(dp3454
g12
g1655
sg13
I3
sg14
(dp3455
g1659
I3
ssbsg1660
g7
(g8
g9
NtRp3456
(dp3457
g12
g1660
sg13
I1
sg14
(dp3458
sbsg1664
g7
(g8
g9
NtRp3459
(dp3460
g12
g1664
sg13
I2
sg14
(dp3461
sbsg1668
g7
(g8
g9
NtRp3462
(dp3463
g12
g1668
sg13
I1
sg14
(dp3464
sbsg1672
g7
(g8
g9
NtRp3465
(dp3466
g12
g1672
sg13
I1
sg14
(dp3467
sbsg1676
g7
(g8
g9
NtRp3468
(dp3469
g12
g1676
sg13
I1
sg14
(dp3470
sbsg1680
g7
(g8
g9
NtRp3471
(dp3472
g12
g1680
sg13
I1
sg14
(dp3473
sbsg1684
g7
(g8
g9
NtRp3474
(dp3475
g12
g1684
sg13
I1
sg14
(dp3476
sbsg1688
g7
(g8
g9
NtRp3477
(dp3478
g12
g1688
sg13
I1
sg14
(dp3479
sbsg1692
g7
(g8
g9
NtRp3480
(dp3481
g12
g1692
sg13
I1
sg14
(dp3482
sbsg1696
g7
(g8
g9
NtRp3483
(dp3484
g12
g1696
sg13
I1
sg14
(dp3485
sbsg1700
g7
(g8
g9
NtRp3486
(dp3487
g12
g1700
sg13
I1
sg14
(dp3488
sbsg1704
g7
(g8
g9
NtRp3489
(dp3490
g12
g1704
sg13
I1
sg14
(dp3491
sbsg1708
g7
(g8
g9
NtRp3492
(dp3493
g12
g1708
sg13
I2
sg14
(dp3494
sbsg1712
g7
(g8
g9
NtRp3495
(dp3496
g12
g1712
sg13
I1
sg14
(dp3497
sbsg1716
g7
(g8
g9
NtRp3498
(dp3499
g12
g1716
sg13
I1
sg14
(dp3500
sbsg1720
g7
(g8
g9
NtRp3501
(dp3502
g12
g1720
sg13
I1
sg14
(dp3503
sbsg1724
g7
(g8
g9
NtRp3504
(dp3505
g12
g1724
sg13
I1
sg14
(dp3506
sbsg1728
g7
(g8
g9
NtRp3507
(dp3508
g12
g1728
sg13
I1
sg14
(dp3509
sbsg1732
g7
(g8
g9
NtRp3510
(dp3511
g12
g1732
sg13
I1
sg14
(dp3512
sbsg1736
g7
(g8
g9
NtRp3513
(dp3514
g12
g1736
sg13
I1
sg14
(dp3515
sbsg1740
g7
(g8
g9
NtRp3516
(dp3517
g12
g1740
sg13
I1
sg14
(dp3518
sbsg1744
g7
(g8
g9
NtRp3519
(dp3520
g12
g1744
sg13
I1
sg14
(dp3521
sbsg1748
g7
(g8
g9
NtRp3522
(dp3523
g12
g1748
sg13
I1
sg14
(dp3524
sbsg1752
g7
(g8
g9
NtRp3525
(dp3526
g12
g1752
sg13
I1
sg14
(dp3527
sbsg1756
g7
(g8
g9
NtRp3528
(dp3529
g12
g1756
sg13
I1
sg14
(dp3530
sbsg1760
g7
(g8
g9
NtRp3531
(dp3532
g12
g1760
sg13
I1
sg14
(dp3533
sbsg1764
g7
(g8
g9
NtRp3534
(dp3535
g12
g1764
sg13
I1
sg14
(dp3536
sbsg1768
g7
(g8
g9
NtRp3537
(dp3538
g12
g1768
sg13
I1
sg14
(dp3539
sbsg1772
g7
(g8
g9
NtRp3540
(dp3541
g12
g1772
sg13
I1
sg14
(dp3542
sbsg1776
g7
(g8
g9
NtRp3543
(dp3544
g12
g1776
sg13
I3
sg14
(dp3545
sbsg1780
g7
(g8
g9
NtRp3546
(dp3547
g12
g1780
sg13
I4
sg14
(dp3548
g1784
I1
ssbsg1785
g7
(g8
g9
NtRp3549
(dp3550
g12
g1785
sg13
I1
sg14
(dp3551
sbsg1789
g7
(g8
g9
NtRp3552
(dp3553
g12
g1789
sg13
I1
sg14
(dp3554
sbsg1793
g7
(g8
g9
NtRp3555
(dp3556
g12
g1793
sg13
I1
sg14
(dp3557
sbsg1797
g7
(g8
g9
NtRp3558
(dp3559
g12
g1797
sg13
I1
sg14
(dp3560
sbsg1801
g7
(g8
g9
NtRp3561
(dp3562
g12
g1801
sg13
I2
sg14
(dp3563
sbsg1805
g7
(g8
g9
NtRp3564
(dp3565
g12
g1805
sg13
I4
sg14
(dp3566
sbsg1809
g7
(g8
g9
NtRp3567
(dp3568
g12
g1809
sg13
I1
sg14
(dp3569
sbsg1813
g7
(g8
g9
NtRp3570
(dp3571
g12
g1813
sg13
I2
sg14
(dp3572
sbsg1817
g7
(g8
g9
NtRp3573
(dp3574
g12
g1817
sg13
I1
sg14
(dp3575
sbsg1821
g7
(g8
g9
NtRp3576
(dp3577
g12
g1821
sg13
I1
sg14
(dp3578
sbsg1825
g7
(g8
g9
NtRp3579
(dp3580
g12
g1825
sg13
I6
sg14
(dp3581
sbsg1829
g7
(g8
g9
NtRp3582
(dp3583
g12
g1829
sg13
I1
sg14
(dp3584
sbsg1833
g7
(g8
g9
NtRp3585
(dp3586
g12
g1833
sg13
I1
sg14
(dp3587
g1837
I1
ssbsg1838
g7
(g8
g9
NtRp3588
(dp3589
g12
g1838
sg13
I1
sg14
(dp3590
sbsg1842
g7
(g8
g9
NtRp3591
(dp3592
g12
g1842
sg13
I1
sg14
(dp3593
sbsg1846
g7
(g8
g9
NtRp3594
(dp3595
g12
g1846
sg13
I1
sg14
(dp3596
sbsg1850
g7
(g8
g9
NtRp3597
(dp3598
g12
g1850
sg13
I3
sg14
(dp3599
sbsg1854
g7
(g8
g9
NtRp3600
(dp3601
g12
g1854
sg13
I2
sg14
(dp3602
sbsg1858
g7
(g8
g9
NtRp3603
(dp3604
g12
g1858
sg13
I1
sg14
(dp3605
sbsg1862
g7
(g8
g9
NtRp3606
(dp3607
g12
g1862
sg13
I1
sg14
(dp3608
sbsg1866
g7
(g8
g9
NtRp3609
(dp3610
g12
g1866
sg13
I2
sg14
(dp3611
sbsg1870
g7
(g8
g9
NtRp3612
(dp3613
g12
g1870
sg13
I1
sg14
(dp3614
g1874
I1
ssbsg1875
g7
(g8
g9
NtRp3615
(dp3616
g12
g1875
sg13
I1
sg14
(dp3617
sbsg1879
g7
(g8
g9
NtRp3618
(dp3619
g12
g1879
sg13
I2
sg14
(dp3620
sbsg1883
g7
(g8
g9
NtRp3621
(dp3622
g12
g1883
sg13
I1
sg14
(dp3623
sbsg1887
g7
(g8
g9
NtRp3624
(dp3625
g12
g1887
sg13
I1
sg14
(dp3626
sbsg1891
g7
(g8
g9
NtRp3627
(dp3628
g12
g1891
sg13
I1
sg14
(dp3629
sbsg1895
g7
(g8
g9
NtRp3630
(dp3631
g12
g1895
sg13
I2
sg14
(dp3632
sbsg1899
g7
(g8
g9
NtRp3633
(dp3634
g12
g1899
sg13
I1
sg14
(dp3635
sbsg1903
g7
(g8
g9
NtRp3636
(dp3637
g12
g1903
sg13
I1
sg14
(dp3638
sbsg1907
g7
(g8
g9
NtRp3639
(dp3640
g12
g1907
sg13
I1
sg14
(dp3641
sbsg1911
g7
(g8
g9
NtRp3642
(dp3643
g12
g1911
sg13
I2
sg14
(dp3644
sbsg1915
g7
(g8
g9
NtRp3645
(dp3646
g12
g1915
sg13
I1
sg14
(dp3647
sbsg1919
g7
(g8
g9
NtRp3648
(dp3649
g12
g1919
sg13
I1
sg14
(dp3650
sbsg1923
g7
(g8
g9
NtRp3651
(dp3652
g12
g1923
sg13
I1
sg14
(dp3653
sbsg1927
g7
(g8
g9
NtRp3654
(dp3655
g12
g1927
sg13
I1
sg14
(dp3656
sbsg1931
g7
(g8
g9
NtRp3657
(dp3658
g12
g1931
sg13
I1
sg14
(dp3659
sbsg1935
g7
(g8
g9
NtRp3660
(dp3661
g12
g1935
sg13
I2
sg14
(dp3662
sbsg1939
g7
(g8
g9
NtRp3663
(dp3664
g12
g1939
sg13
I3
sg14
(dp3665
sbsg1943
g7
(g8
g9
NtRp3666
(dp3667
g12
g1943
sg13
I6
sg14
(dp3668
sbsg1947
g7
(g8
g9
NtRp3669
(dp3670
g12
g1947
sg13
I1
sg14
(dp3671
sbsg1951
g7
(g8
g9
NtRp3672
(dp3673
g12
g1951
sg13
I1
sg14
(dp3674
sbsg1955
g7
(g8
g9
NtRp3675
(dp3676
g12
g1955
sg13
I1
sg14
(dp3677
sbsg1959
g7
(g8
g9
NtRp3678
(dp3679
g12
g1959
sg13
I1
sg14
(dp3680
sbsg1963
g7
(g8
g9
NtRp3681
(dp3682
g12
g1963
sg13
I1
sg14
(dp3683
sbsg1967
g7
(g8
g9
NtRp3684
(dp3685
g12
g1967
sg13
I8
sg14
(dp3686
sbsg1971
g7
(g8
g9
NtRp3687
(dp3688
g12
g1971
sg13
I1
sg14
(dp3689
sbsg1975
g7
(g8
g9
NtRp3690
(dp3691
g12
g1975
sg13
I3
sg14
(dp3692
sbsg1979
g7
(g8
g9
NtRp3693
(dp3694
g12
g1979
sg13
I2
sg14
(dp3695
sbsg1983
g7
(g8
g9
NtRp3696
(dp3697
g12
g1983
sg13
I3
sg14
(dp3698
g1987
I3
ssbsg1988
g7
(g8
g9
NtRp3699
(dp3700
g12
g1988
sg13
I2
sg14
(dp3701
sbsg1992
g7
(g8
g9
NtRp3702
(dp3703
g12
g1992
sg13
I1
sg14
(dp3704
sbsg1996
g7
(g8
g9
NtRp3705
(dp3706
g12
g1996
sg13
I1
sg14
(dp3707
sbsg2000
g7
(g8
g9
NtRp3708
(dp3709
g12
g2000
sg13
I3
sg14
(dp3710
sbsg2004
g7
(g8
g9
NtRp3711
(dp3712
g12
g2004
sg13
I1
sg14
(dp3713
sbsg2008
g7
(g8
g9
NtRp3714
(dp3715
g12
g2008
sg13
I6
sg14
(dp3716
sbsg2012
g7
(g8
g9
NtRp3717
(dp3718
g12
g2012
sg13
I1
sg14
(dp3719
sbsg2016
g7
(g8
g9
NtRp3720
(dp3721
g12
g2016
sg13
I4
sg14
(dp3722
sbsg2020
g7
(g8
g9
NtRp3723
(dp3724
g12
g2020
sg13
I1
sg14
(dp3725
sbsg2024
g7
(g8
g9
NtRp3726
(dp3727
g12
g2024
sg13
I1
sg14
(dp3728
sbsg2028
g7
(g8
g9
NtRp3729
(dp3730
g12
g2028
sg13
I3
sg14
(dp3731
sbsg2032
g7
(g8
g9
NtRp3732
(dp3733
g12
g2032
sg13
I1
sg14
(dp3734
g2036
I1
ssbsg2037
g7
(g8
g9
NtRp3735
(dp3736
g12
g2037
sg13
I1
sg14
(dp3737
sbsg2041
g7
(g8
g9
NtRp3738
(dp3739
g12
g2041
sg13
I2
sg14
(dp3740
g2045
I2
ssbsg2046
g7
(g8
g9
NtRp3741
(dp3742
g12
g2046
sg13
I2
sg14
(dp3743
sbsg2050
g7
(g8
g9
NtRp3744
(dp3745
g12
g2050
sg13
I1
sg14
(dp3746
sbsg2054
g7
(g8
g9
NtRp3747
(dp3748
g12
g2054
sg13
I1
sg14
(dp3749
sbsg2058
g7
(g8
g9
NtRp3750
(dp3751
g12
g2058
sg13
I1
sg14
(dp3752
sbsg2062
g7
(g8
g9
NtRp3753
(dp3754
g12
g2062
sg13
I1
sg14
(dp3755
sbsg2066
g7
(g8
g9
NtRp3756
(dp3757
g12
g2066
sg13
I1
sg14
(dp3758
sbsg2070
g7
(g8
g9
NtRp3759
(dp3760
g12
g2070
sg13
I1
sg14
(dp3761
sbsg2074
g7
(g8
g9
NtRp3762
(dp3763
g12
g2074
sg13
I1
sg14
(dp3764
sbsg2078
g7
(g8
g9
NtRp3765
(dp3766
g12
g2078
sg13
I1
sg14
(dp3767
sbsg2082
g7
(g8
g9
NtRp3768
(dp3769
g12
g2082
sg13
I1
sg14
(dp3770
sbsg2086
g7
(g8
g9
NtRp3771
(dp3772
g12
g2086
sg13
I1
sg14
(dp3773
g2090
I1
ssbsg2091
g7
(g8
g9
NtRp3774
(dp3775
g12
g2091
sg13
I2
sg14
(dp3776
sbsg2095
g7
(g8
g9
NtRp3777
(dp3778
g12
g2095
sg13
I3
sg14
(dp3779
sbsg2099
g7
(g8
g9
NtRp3780
(dp3781
g12
g2099
sg13
I1
sg14
(dp3782
sbsg2103
g7
(g8
g9
NtRp3783
(dp3784
g12
g2103
sg13
I1
sg14
(dp3785
sbsg2107
g7
(g8
g9
NtRp3786
(dp3787
g12
g2107
sg13
I2
sg14
(dp3788
sbsg2111
g7
(g8
g9
NtRp3789
(dp3790
g12
g2111
sg13
I2
sg14
(dp3791
sbsg2115
g7
(g8
g9
NtRp3792
(dp3793
g12
g2115
sg13
I1
sg14
(dp3794
sbsg2119
g7
(g8
g9
NtRp3795
(dp3796
g12
g2119
sg13
I1
sg14
(dp3797
sbsg2123
g7
(g8
g9
NtRp3798
(dp3799
g12
g2123
sg13
I1
sg14
(dp3800
sbsg2127
g7
(g8
g9
NtRp3801
(dp3802
g12
g2127
sg13
I1
sg14
(dp3803
sbsg2131
g7
(g8
g9
NtRp3804
(dp3805
g12
g2131
sg13
I1
sg14
(dp3806
sbsg2135
g7
(g8
g9
NtRp3807
(dp3808
g12
g2135
sg13
I1
sg14
(dp3809
sbsg2139
g7
(g8
g9
NtRp3810
(dp3811
g12
g2139
sg13
I1
sg14
(dp3812
sbsg2143
g7
(g8
g9
NtRp3813
(dp3814
g12
g2143
sg13
I1
sg14
(dp3815
sbsg2147
g7
(g8
g9
NtRp3816
(dp3817
g12
g2147
sg13
I1
sg14
(dp3818
sbsg2151
g7
(g8
g9
NtRp3819
(dp3820
g12
g2151
sg13
I3
sg14
(dp3821
sbsg2155
g7
(g8
g9
NtRp3822
(dp3823
g12
g2155
sg13
I1
sg14
(dp3824
sbsg2159
g7
(g8
g9
NtRp3825
(dp3826
g12
g2159
sg13
I1
sg14
(dp3827
g2163
I1
ssbsg2164
g7
(g8
g9
NtRp3828
(dp3829
g12
g2164
sg13
I1
sg14
(dp3830
sbsg2168
g7
(g8
g9
NtRp3831
(dp3832
g12
g2168
sg13
I2
sg14
(dp3833
sbsg2172
g7
(g8
g9
NtRp3834
(dp3835
g12
g2172
sg13
I1
sg14
(dp3836
sbsg2176
g7
(g8
g9
NtRp3837
(dp3838
g12
g2176
sg13
I1
sg14
(dp3839
sbssg2180
I71
sg2181
I2
sg2182
I200
sg2183
I0
sg2184
g2185
((lp3840
g2187
ag2188
ag2189
ag2190
ag2191
ag2192
ag2193
ag2194
ag2195
ag2196
ag2197
ag2198
ag2199
ag2200
ag2201
ag2202
ag2203
ag2204
ag2205
ag2206
ag2207
ag2208
ag2209
ag2210
ag2211
ag2212
ag2213
ag2214
ag2215
ag2216
ag2217
ag2218
ag2219
ag2220
ag2221
ag2222
ag2223
ag2224
ag2225
ag2226
ag2227
ag2228
ag2229
ag2230
atRp3841
sg2232
I45
sg2233
I951
sg2234
Nsg2239
g2240
(S'\x10&\x07\x00\x1cS'
tRp3842
sg2242
Nsg2243
I0
sbsI3
(istatistics.SolverStatistics
StatData
p3843
(dp3844
g4
(dp3845
g6
g7
(g8
g9
NtRp3846
(dp3847
g12
g6
sg13
I1
sg14
(dp3848
sbsg16
g7
(g8
g9
NtRp3849
(dp3850
g12
g16
sg13
I1
sg14
(dp3851
g20
I1
ssbsg21
g7
(g8
g9
NtRp3852
(dp3853
g12
g21
sg13
I1
sg14
(dp3854
sbsg25
g7
(g8
g9
NtRp3855
(dp3856
g12
g25
sg13
I2
sg14
(dp3857
sbsg29
g7
(g8
g9
NtRp3858
(dp3859
g12
g29
sg13
I4
sg14
(dp3860
sbsg33
g7
(g8
g9
NtRp3861
(dp3862
g12
g33
sg13
I1
sg14
(dp3863
sbsg37
g7
(g8
g9
NtRp3864
(dp3865
g12
g37
sg13
I1
sg14
(dp3866
sbsg41
g7
(g8
g9
NtRp3867
(dp3868
g12
g41
sg13
I1
sg14
(dp3869
sbsg45
g7
(g8
g9
NtRp3870
(dp3871
g12
g45
sg13
I1
sg14
(dp3872
sbsg49
g7
(g8
g9
NtRp3873
(dp3874
g12
g49
sg13
I1
sg14
(dp3875
sbsg53
g7
(g8
g9
NtRp3876
(dp3877
g12
g53
sg13
I1
sg14
(dp3878
sbsg57
g7
(g8
g9
NtRp3879
(dp3880
g12
g57
sg13
I1
sg14
(dp3881
g61
I1
ssbsg62
g7
(g8
g9
NtRp3882
(dp3883
g12
g62
sg13
I1
sg14
(dp3884
sbsg66
g7
(g8
g9
NtRp3885
(dp3886
g12
g66
sg13
I1
sg14
(dp3887
sbsg70
g7
(g8
g9
NtRp3888
(dp3889
g12
g70
sg13
I1
sg14
(dp3890
sbsg74
g7
(g8
g9
NtRp3891
(dp3892
g12
g74
sg13
I1
sg14
(dp3893
g78
I1
ssbsg79
g7
(g8
g9
NtRp3894
(dp3895
g12
g79
sg13
I1
sg14
(dp3896
sbsg83
g7
(g8
g9
NtRp3897
(dp3898
g12
g83
sg13
I1
sg14
(dp3899
sbsg87
g7
(g8
g9
NtRp3900
(dp3901
g12
g87
sg13
I1
sg14
(dp3902
sbsg91
g7
(g8
g9
NtRp3903
(dp3904
g12
g91
sg13
I1
sg14
(dp3905
sbsg95
g7
(g8
g9
NtRp3906
(dp3907
g12
g95
sg13
I1
sg14
(dp3908
sbsg99
g7
(g8
g9
NtRp3909
(dp3910
g12
g99
sg13
I1
sg14
(dp3911
g103
I1
ssbsg104
g7
(g8
g9
NtRp3912
(dp3913
g12
g104
sg13
I1
sg14
(dp3914
sbsg108
g7
(g8
g9
NtRp3915
(dp3916
g12
g108
sg13
I1
sg14
(dp3917
g112
I1
ssbsg113
g7
(g8
g9
NtRp3918
(dp3919
g12
g113
sg13
I14
sg14
(dp3920
sbsg117
g7
(g8
g9
NtRp3921
(dp3922
g12
g117
sg13
I1
sg14
(dp3923
sbsg121
g7
(g8
g9
NtRp3924
(dp3925
g12
g121
sg13
I2
sg14
(dp3926
sbsg125
g7
(g8
g9
NtRp3927
(dp3928
g12
g125
sg13
I1
sg14
(dp3929
sbsg129
g7
(g8
g9
NtRp3930
(dp3931
g12
g129
sg13
I2
sg14
(dp3932
sbsg133
g7
(g8
g9
NtRp3933
(dp3934
g12
g133
sg13
I2
sg14
(dp3935
sbsg137
g7
(g8
g9
NtRp3936
(dp3937
g12
g137
sg13
I1
sg14
(dp3938
sbsg141
g7
(g8
g9
NtRp3939
(dp3940
g12
g141
sg13
I1
sg14
(dp3941
sbsg145
g7
(g8
g9
NtRp3942
(dp3943
g12
g145
sg13
I1
sg14
(dp3944
sbsg149
g7
(g8
g9
NtRp3945
(dp3946
g12
g149
sg13
I2
sg14
(dp3947
sbsg153
g7
(g8
g9
NtRp3948
(dp3949
g12
g153
sg13
I3
sg14
(dp3950
sbsg157
g7
(g8
g9
NtRp3951
(dp3952
g12
g157
sg13
I1
sg14
(dp3953
sbsg161
g7
(g8
g9
NtRp3954
(dp3955
g12
g161
sg13
I1
sg14
(dp3956
sbsg165
g7
(g8
g9
NtRp3957
(dp3958
g12
g165
sg13
I2
sg14
(dp3959
sbsg169
g7
(g8
g9
NtRp3960
(dp3961
g12
g169
sg13
I1
sg14
(dp3962
sbsg173
g7
(g8
g9
NtRp3963
(dp3964
g12
g173
sg13
I14
sg14
(dp3965
sbsg177
g7
(g8
g9
NtRp3966
(dp3967
g12
g177
sg13
I1
sg14
(dp3968
g181
I1
ssbsg182
g7
(g8
g9
NtRp3969
(dp3970
g12
g182
sg13
I1
sg14
(dp3971
sbsg186
g7
(g8
g9
NtRp3972
(dp3973
g12
g186
sg13
I1
sg14
(dp3974
sbsg190
g7
(g8
g9
NtRp3975
(dp3976
g12
g190
sg13
I2
sg14
(dp3977
sbsg194
g7
(g8
g9
NtRp3978
(dp3979
g12
g194
sg13
I1
sg14
(dp3980
sbsg198
g7
(g8
g9
NtRp3981
(dp3982
g12
g198
sg13
I1
sg14
(dp3983
sbsg202
g7
(g8
g9
NtRp3984
(dp3985
g12
g202
sg13
I1
sg14
(dp3986
sbsg206
g7
(g8
g9
NtRp3987
(dp3988
g12
g206
sg13
I1
sg14
(dp3989
sbsg210
g7
(g8
g9
NtRp3990
(dp3991
g12
g210
sg13
I1
sg14
(dp3992
sbsg214
g7
(g8
g9
NtRp3993
(dp3994
g12
g214
sg13
I1
sg14
(dp3995
sbsg218
g7
(g8
g9
NtRp3996
(dp3997
g12
g218
sg13
I6
sg14
(dp3998
sbsg222
g7
(g8
g9
NtRp3999
(dp4000
g12
g222
sg13
I1
sg14
(dp4001
sbsg226
g7
(g8
g9
NtRp4002
(dp4003
g12
g226
sg13
I1
sg14
(dp4004
sbsg230
g7
(g8
g9
NtRp4005
(dp4006
g12
g230
sg13
I1
sg14
(dp4007
sbsg234
g7
(g8
g9
NtRp4008
(dp4009
g12
g234
sg13
I1
sg14
(dp4010
sbsg238
g7
(g8
g9
NtRp4011
(dp4012
g12
g238
sg13
I1
sg14
(dp4013
sbsg242
g7
(g8
g9
NtRp4014
(dp4015
g12
g242
sg13
I1
sg14
(dp4016
sbsg246
g7
(g8
g9
NtRp4017
(dp4018
g12
g246
sg13
I1
sg14
(dp4019
sbsg250
g7
(g8
g9
NtRp4020
(dp4021
g12
g250
sg13
I1
sg14
(dp4022
sbsg254
g7
(g8
g9
NtRp4023
(dp4024
g12
g254
sg13
I1
sg14
(dp4025
sbsg258
g7
(g8
g9
NtRp4026
(dp4027
g12
g258
sg13
I2
sg14
(dp4028
g262
I2
ssbsg263
g7
(g8
g9
NtRp4029
(dp4030
g12
g263
sg13
I1
sg14
(dp4031
sbsg267
g7
(g8
g9
NtRp4032
(dp4033
g12
g267
sg13
I1
sg14
(dp4034
sbsg271
g7
(g8
g9
NtRp4035
(dp4036
g12
g271
sg13
I1
sg14
(dp4037
g275
I1
ssbsg276
g7
(g8
g9
NtRp4038
(dp4039
g12
g276
sg13
I1
sg14
(dp4040
sbsg280
g7
(g8
g9
NtRp4041
(dp4042
g12
g280
sg13
I1
sg14
(dp4043
g284
I1
ssbsg285
g7
(g8
g9
NtRp4044
(dp4045
g12
g285
sg13
I3
sg14
(dp4046
sbsg289
g7
(g8
g9
NtRp4047
(dp4048
g12
g289
sg13
I1
sg14
(dp4049
sbsg293
g7
(g8
g9
NtRp4050
(dp4051
g12
g293
sg13
I1
sg14
(dp4052
sbsg297
g7
(g8
g9
NtRp4053
(dp4054
g12
g297
sg13
I1
sg14
(dp4055
sbsg301
g7
(g8
g9
NtRp4056
(dp4057
g12
g301
sg13
I1
sg14
(dp4058
sbsg305
g7
(g8
g9
NtRp4059
(dp4060
g12
g305
sg13
I2
sg14
(dp4061
g309
I2
ssbsg310
g7
(g8
g9
NtRp4062
(dp4063
g12
g310
sg13
I1
sg14
(dp4064
sbsg314
g7
(g8
g9
NtRp4065
(dp4066
g12
g314
sg13
I1
sg14
(dp4067
sbsg318
g7
(g8
g9
NtRp4068
(dp4069
g12
g318
sg13
I2
sg14
(dp4070
sbsg322
g7
(g8
g9
NtRp4071
(dp4072
g12
g322
sg13
I2
sg14
(dp4073
sbsg326
g7
(g8
g9
NtRp4074
(dp4075
g12
g326
sg13
I2
sg14
(dp4076
sbsg330
g7
(g8
g9
NtRp4077
(dp4078
g12
g330
sg13
I3
sg14
(dp4079
sbsg334
g7
(g8
g9
NtRp4080
(dp4081
g12
g334
sg13
I15
sg14
(dp4082
sbsg338
g7
(g8
g9
NtRp4083
(dp4084
g12
g338
sg13
I3
sg14
(dp4085
sbsg342
g7
(g8
g9
NtRp4086
(dp4087
g12
g342
sg13
I1
sg14
(dp4088
sbsg346
g7
(g8
g9
NtRp4089
(dp4090
g12
g346
sg13
I1
sg14
(dp4091
sbsg350
g7
(g8
g9
NtRp4092
(dp4093
g12
g350
sg13
I1
sg14
(dp4094
g354
I1
ssbsg355
g7
(g8
g9
NtRp4095
(dp4096
g12
g355
sg13
I1
sg14
(dp4097
g359
I1
ssbsg360
g7
(g8
g9
NtRp4098
(dp4099
g12
g360
sg13
I1
sg14
(dp4100
sbsg364
g7
(g8
g9
NtRp4101
(dp4102
g12
g364
sg13
I1
sg14
(dp4103
sbsg368
g7
(g8
g9
NtRp4104
(dp4105
g12
g368
sg13
I1
sg14
(dp4106
sbsg372
g7
(g8
g9
NtRp4107
(dp4108
g12
g372
sg13
I2
sg14
(dp4109
sbsg376
g7
(g8
g9
NtRp4110
(dp4111
g12
g376
sg13
I2
sg14
(dp4112
g380
I2
ssbsg381
g7
(g8
g9
NtRp4113
(dp4114
g12
g381
sg13
I4
sg14
(dp4115
sbsg385
g7
(g8
g9
NtRp4116
(dp4117
g12
g385
sg13
I3
sg14
(dp4118
sbsg389
g7
(g8
g9
NtRp4119
(dp4120
g12
g389
sg13
I2
sg14
(dp4121
sbsg393
g7
(g8
g9
NtRp4122
(dp4123
g12
g393
sg13
I1
sg14
(dp4124
sbsg397
g7
(g8
g9
NtRp4125
(dp4126
g12
g397
sg13
I1
sg14
(dp4127
sbsg401
g7
(g8
g9
NtRp4128
(dp4129
g12
g401
sg13
I1
sg14
(dp4130
sbsg405
g7
(g8
g9
NtRp4131
(dp4132
g12
g405
sg13
I1
sg14
(dp4133
sbsg409
g7
(g8
g9
NtRp4134
(dp4135
g12
g409
sg13
I1
sg14
(dp4136
sbsg413
g7
(g8
g9
NtRp4137
(dp4138
g12
g413
sg13
I1
sg14
(dp4139
g417
I1
ssbsg418
g7
(g8
g9
NtRp4140
(dp4141
g12
g418
sg13
I1
sg14
(dp4142
sbsg422
g7
(g8
g9
NtRp4143
(dp4144
g12
g422
sg13
I1
sg14
(dp4145
sbsg426
g7
(g8
g9
NtRp4146
(dp4147
g12
g426
sg13
I1
sg14
(dp4148
sbsg430
g7
(g8
g9
NtRp4149
(dp4150
g12
g430
sg13
I1
sg14
(dp4151
g434
I1
ssbsg435
g7
(g8
g9
NtRp4152
(dp4153
g12
g435
sg13
I1
sg14
(dp4154
sbsg439
g7
(g8
g9
NtRp4155
(dp4156
g12
g439
sg13
I1
sg14
(dp4157
sbsg443
g7
(g8
g9
NtRp4158
(dp4159
g12
g443
sg13
I1
sg14
(dp4160
sbsg447
g7
(g8
g9
NtRp4161
(dp4162
g12
g447
sg13
I1
sg14
(dp4163
sbsg451
g7
(g8
g9
NtRp4164
(dp4165
g12
g451
sg13
I1
sg14
(dp4166
sbsg455
g7
(g8
g9
NtRp4167
(dp4168
g12
g455
sg13
I2
sg14
(dp4169
sbsg459
g7
(g8
g9
NtRp4170
(dp4171
g12
g459
sg13
I15
sg14
(dp4172
sbsg463
g7
(g8
g9
NtRp4173
(dp4174
g12
g463
sg13
I3
sg14
(dp4175
sbsg467
g7
(g8
g9
NtRp4176
(dp4177
g12
g467
sg13
I1
sg14
(dp4178
sbsg471
g7
(g8
g9
NtRp4179
(dp4180
g12
g471
sg13
I1
sg14
(dp4181
g475
I1
ssbsg476
g7
(g8
g9
NtRp4182
(dp4183
g12
g476
sg13
I1
sg14
(dp4184
sbsg480
g7
(g8
g9
NtRp4185
(dp4186
g12
g480
sg13
I1
sg14
(dp4187
g484
I1
ssbsg485
g7
(g8
g9
NtRp4188
(dp4189
g12
g485
sg13
I1
sg14
(dp4190
g489
I1
ssbsg490
g7
(g8
g9
NtRp4191
(dp4192
g12
g490
sg13
I1
sg14
(dp4193
sbsg494
g7
(g8
g9
NtRp4194
(dp4195
g12
g494
sg13
I1
sg14
(dp4196
sbsg498
g7
(g8
g9
NtRp4197
(dp4198
g12
g498
sg13
I1
sg14
(dp4199
sbsg502
g7
(g8
g9
NtRp4200
(dp4201
g12
g502
sg13
I1
sg14
(dp4202
sbsg506
g7
(g8
g9
NtRp4203
(dp4204
g12
g506
sg13
I1
sg14
(dp4205
sbsg510
g7
(g8
g9
NtRp4206
(dp4207
g12
g510
sg13
I1
sg14
(dp4208
sbsg514
g7
(g8
g9
NtRp4209
(dp4210
g12
g514
sg13
I1
sg14
(dp4211
sbsg518
g7
(g8
g9
NtRp4212
(dp4213
g12
g518
sg13
I1
sg14
(dp4214
sbsg522
g7
(g8
g9
NtRp4215
(dp4216
g12
g522
sg13
I1
sg14
(dp4217
sbsg526
g7
(g8
g9
NtRp4218
(dp4219
g12
g526
sg13
I1
sg14
(dp4220
sbsg530
g7
(g8
g9
NtRp4221
(dp4222
g12
g530
sg13
I1
sg14
(dp4223
g534
I1
ssbsg535
g7
(g8
g9
NtRp4224
(dp4225
g12
g535
sg13
I1
sg14
(dp4226
sbsg539
g7
(g8
g9
NtRp4227
(dp4228
g12
g539
sg13
I5
sg14
(dp4229
sbsg543
g7
(g8
g9
NtRp4230
(dp4231
g12
g543
sg13
I2
sg14
(dp4232
sbsg547
g7
(g8
g9
NtRp4233
(dp4234
g12
g547
sg13
I1
sg14
(dp4235
sbsg551
g7
(g8
g9
NtRp4236
(dp4237
g12
g551
sg13
I3
sg14
(dp4238
sbsg555
g7
(g8
g9
NtRp4239
(dp4240
g12
g555
sg13
I3
sg14
(dp4241
g559
I3
ssbsg560
g7
(g8
g9
NtRp4242
(dp4243
g12
g560
sg13
I1
sg14
(dp4244
sbsg564
g7
(g8
g9
NtRp4245
(dp4246
g12
g564
sg13
I15
sg14
(dp4247
sbsg568
g7
(g8
g9
NtRp4248
(dp4249
g12
g568
sg13
I1
sg14
(dp4250
sbsg572
g7
(g8
g9
NtRp4251
(dp4252
g12
g572
sg13
I1
sg14
(dp4253
sbsg576
g7
(g8
g9
NtRp4254
(dp4255
g12
g576
sg13
I1
sg14
(dp4256
sbsg580
g7
(g8
g9
NtRp4257
(dp4258
g12
g580
sg13
I6
sg14
(dp4259
g584
I6
ssbsg585
g7
(g8
g9
NtRp4260
(dp4261
g12
g585
sg13
I1
sg14
(dp4262
sbsg589
g7
(g8
g9
NtRp4263
(dp4264
g12
g589
sg13
I3
sg14
(dp4265
sbsg593
g7
(g8
g9
NtRp4266
(dp4267
g12
g593
sg13
I1
sg14
(dp4268
sbsg597
g7
(g8
g9
NtRp4269
(dp4270
g12
g597
sg13
I1
sg14
(dp4271
sbsg601
g7
(g8
g9
NtRp4272
(dp4273
g12
g601
sg13
I1
sg14
(dp4274
sbsg605
g7
(g8
g9
NtRp4275
(dp4276
g12
g605
sg13
I6
sg14
(dp4277
sbsg609
g7
(g8
g9
NtRp4278
(dp4279
g12
g609
sg13
I1
sg14
(dp4280
sbsg613
g7
(g8
g9
NtRp4281
(dp4282
g12
g613
sg13
I1
sg14
(dp4283
g617
I1
ssbsg618
g7
(g8
g9
NtRp4284
(dp4285
g12
g618
sg13
I1
sg14
(dp4286
sbsg622
g7
(g8
g9
NtRp4287
(dp4288
g12
g622
sg13
I5
sg14
(dp4289
sbsg626
g7
(g8
g9
NtRp4290
(dp4291
g12
g626
sg13
I1
sg14
(dp4292
sbsg630
g7
(g8
g9
NtRp4293
(dp4294
g12
g630
sg13
I1
sg14
(dp4295
sbsg634
g7
(g8
g9
NtRp4296
(dp4297
g12
g634
sg13
I8
sg14
(dp4298
sbsg638
g7
(g8
g9
NtRp4299
(dp4300
g12
g638
sg13
I1
sg14
(dp4301
sbsg642
g7
(g8
g9
NtRp4302
(dp4303
g12
g642
sg13
I1
sg14
(dp4304
sbsg646
g7
(g8
g9
NtRp4305
(dp4306
g12
g646
sg13
I1
sg14
(dp4307
sbsg650
g7
(g8
g9
NtRp4308
(dp4309
g12
g650
sg13
I1
sg14
(dp4310
g654
I2
ssbsg655
g7
(g8
g9
NtRp4311
(dp4312
g12
g655
sg13
I1
sg14
(dp4313
sbsg659
g7
(g8
g9
NtRp4314
(dp4315
g12
g659
sg13
I1
sg14
(dp4316
sbsg663
g7
(g8
g9
NtRp4317
(dp4318
g12
g663
sg13
I1
sg14
(dp4319
sbsg667
g7
(g8
g9
NtRp4320
(dp4321
g12
g667
sg13
I1
sg14
(dp4322
sbsg671
g7
(g8
g9
NtRp4323
(dp4324
g12
g671
sg13
I4
sg14
(dp4325
sbsg675
g7
(g8
g9
NtRp4326
(dp4327
g12
g675
sg13
I1
sg14
(dp4328
sbsg679
g7
(g8
g9
NtRp4329
(dp4330
g12
g679
sg13
I1
sg14
(dp4331
sbsg683
g7
(g8
g9
NtRp4332
(dp4333
g12
g683
sg13
I3
sg14
(dp4334
sbsg687
g7
(g8
g9
NtRp4335
(dp4336
g12
g687
sg13
I1
sg14
(dp4337
sbsg691
g7
(g8
g9
NtRp4338
(dp4339
g12
g691
sg13
I2
sg14
(dp4340
sbsg695
g7
(g8
g9
NtRp4341
(dp4342
g12
g695
sg13
I1
sg14
(dp4343
sbsg699
g7
(g8
g9
NtRp4344
(dp4345
g12
g699
sg13
I1
sg14
(dp4346
sbsg703
g7
(g8
g9
NtRp4347
(dp4348
g12
g703
sg13
I3
sg14
(dp4349
g707
I2
ssbsg708
g7
(g8
g9
NtRp4350
(dp4351
g12
g708
sg13
I1
sg14
(dp4352
sbsg712
g7
(g8
g9
NtRp4353
(dp4354
g12
g712
sg13
I1
sg14
(dp4355
sbsg716
g7
(g8
g9
NtRp4356
(dp4357
g12
g716
sg13
I2
sg14
(dp4358
sbsg720
g7
(g8
g9
NtRp4359
(dp4360
g12
g720
sg13
I1
sg14
(dp4361
sbsg724
g7
(g8
g9
NtRp4362
(dp4363
g12
g724
sg13
I1
sg14
(dp4364
sbsg728
g7
(g8
g9
NtRp4365
(dp4366
g12
g728
sg13
I1
sg14
(dp4367
sbsg732
g7
(g8
g9
NtRp4368
(dp4369
g12
g732
sg13
I1
sg14
(dp4370
sbsg736
g7
(g8
g9
NtRp4371
(dp4372
g12
g736
sg13
I1
sg14
(dp4373
sbsg740
g7
(g8
g9
NtRp4374
(dp4375
g12
g740
sg13
I4
sg14
(dp4376
sbsg744
g7
(g8
g9
NtRp4377
(dp4378
g12
g744
sg13
I1
sg14
(dp4379
sbsg748
g7
(g8
g9
NtRp4380
(dp4381
g12
g748
sg13
I3
sg14
(dp4382
sbsg752
g7
(g8
g9
NtRp4383
(dp4384
g12
g752
sg13
I3
sg14
(dp4385
sbsg756
g7
(g8
g9
NtRp4386
(dp4387
g12
g756
sg13
I12
sg14
(dp4388
sbsg760
g7
(g8
g9
NtRp4389
(dp4390
g12
g760
sg13
I1
sg14
(dp4391
sbsg764
g7
(g8
g9
NtRp4392
(dp4393
g12
g764
sg13
I1
sg14
(dp4394
sbsg768
g7
(g8
g9
NtRp4395
(dp4396
g12
g768
sg13
I3
sg14
(dp4397
g772
I3
ssbsg773
g7
(g8
g9
NtRp4398
(dp4399
g12
g773
sg13
I2
sg14
(dp4400
sbsg777
g7
(g8
g9
NtRp4401
(dp4402
g12
g777
sg13
I2
sg14
(dp4403
sbsg781
g7
(g8
g9
NtRp4404
(dp4405
g12
g781
sg13
I1
sg14
(dp4406
sbsg785
g7
(g8
g9
NtRp4407
(dp4408
g12
g785
sg13
I1
sg14
(dp4409
sbsg789
g7
(g8
g9
NtRp4410
(dp4411
g12
g789
sg13
I2
sg14
(dp4412
sbsg793
g7
(g8
g9
NtRp4413
(dp4414
g12
g793
sg13
I1
sg14
(dp4415
sbsg797
g7
(g8
g9
NtRp4416
(dp4417
g12
g797
sg13
I1
sg14
(dp4418
sbsg801
g7
(g8
g9
NtRp4419
(dp4420
g12
g801
sg13
I1
sg14
(dp4421
sbsg805
g7
(g8
g9
NtRp4422
(dp4423
g12
g805
sg13
I1
sg14
(dp4424
sbsg809
g7
(g8
g9
NtRp4425
(dp4426
g12
g809
sg13
I1
sg14
(dp4427
sbsg813
g7
(g8
g9
NtRp4428
(dp4429
g12
g813
sg13
I1
sg14
(dp4430
sbsg817
g7
(g8
g9
NtRp4431
(dp4432
g12
g817
sg13
I2
sg14
(dp4433
sbsg821
g7
(g8
g9
NtRp4434
(dp4435
g12
g821
sg13
I11
sg14
(dp4436
sbsg825
g7
(g8
g9
NtRp4437
(dp4438
g12
g825
sg13
I1
sg14
(dp4439
sbsg829
g7
(g8
g9
NtRp4440
(dp4441
g12
g829
sg13
I1
sg14
(dp4442
sbsg833
g7
(g8
g9
NtRp4443
(dp4444
g12
g833
sg13
I1
sg14
(dp4445
sbsg837
g7
(g8
g9
NtRp4446
(dp4447
g12
g837
sg13
I1
sg14
(dp4448
sbsg841
g7
(g8
g9
NtRp4449
(dp4450
g12
g841
sg13
I1
sg14
(dp4451
sbsg845
g7
(g8
g9
NtRp4452
(dp4453
g12
g845
sg13
I14
sg14
(dp4454
sbsg849
g7
(g8
g9
NtRp4455
(dp4456
g12
g849
sg13
I1
sg14
(dp4457
sbsg853
g7
(g8
g9
NtRp4458
(dp4459
g12
g853
sg13
I1
sg14
(dp4460
sbsg857
g7
(g8
g9
NtRp4461
(dp4462
g12
g857
sg13
I1
sg14
(dp4463
sbsg861
g7
(g8
g9
NtRp4464
(dp4465
g12
g861
sg13
I1
sg14
(dp4466
sbsg865
g7
(g8
g9
NtRp4467
(dp4468
g12
g865
sg13
I1
sg14
(dp4469
sbsg869
g7
(g8
g9
NtRp4470
(dp4471
g12
g869
sg13
I1
sg14
(dp4472
sbsg873
g7
(g8
g9
NtRp4473
(dp4474
g12
g873
sg13
I1
sg14
(dp4475
sbsg877
g7
(g8
g9
NtRp4476
(dp4477
g12
g877
sg13
I1
sg14
(dp4478
sbsg881
g7
(g8
g9
NtRp4479
(dp4480
g12
g881
sg13
I3
sg14
(dp4481
sbsg885
g7
(g8
g9
NtRp4482
(dp4483
g12
g885
sg13
I1
sg14
(dp4484
sbsg889
g7
(g8
g9
NtRp4485
(dp4486
g12
g889
sg13
I1
sg14
(dp4487
sbsg893
g7
(g8
g9
NtRp4488
(dp4489
g12
g893
sg13
I1
sg14
(dp4490
sbsg897
g7
(g8
g9
NtRp4491
(dp4492
g12
g897
sg13
I2
sg14
(dp4493
sbsg901
g7
(g8
g9
NtRp4494
(dp4495
g12
g901
sg13
I1
sg14
(dp4496
sbsg905
g7
(g8
g9
NtRp4497
(dp4498
g12
g905
sg13
I1
sg14
(dp4499
sbsg909
g7
(g8
g9
NtRp4500
(dp4501
g12
g909
sg13
I1
sg14
(dp4502
sbsg913
g7
(g8
g9
NtRp4503
(dp4504
g12
g913
sg13
I1
sg14
(dp4505
sbsg917
g7
(g8
g9
NtRp4506
(dp4507
g12
g917
sg13
I1
sg14
(dp4508
sbsg921
g7
(g8
g9
NtRp4509
(dp4510
g12
g921
sg13
I6
sg14
(dp4511
sbsg925
g7
(g8
g9
NtRp4512
(dp4513
g12
g925
sg13
I1
sg14
(dp4514
sbsg929
g7
(g8
g9
NtRp4515
(dp4516
g12
g929
sg13
I1
sg14
(dp4517
sbsg933
g7
(g8
g9
NtRp4518
(dp4519
g12
g933
sg13
I1
sg14
(dp4520
sbsg937
g7
(g8
g9
NtRp4521
(dp4522
g12
g937
sg13
I1
sg14
(dp4523
sbsg941
g7
(g8
g9
NtRp4524
(dp4525
g12
g941
sg13
I1
sg14
(dp4526
sbsg945
g7
(g8
g9
NtRp4527
(dp4528
g12
g945
sg13
I4
sg14
(dp4529
g949
I4
ssbsg950
g7
(g8
g9
NtRp4530
(dp4531
g12
g950
sg13
I1
sg14
(dp4532
g954
I1
ssbsg955
g7
(g8
g9
NtRp4533
(dp4534
g12
g955
sg13
I2
sg14
(dp4535
sbsg959
g7
(g8
g9
NtRp4536
(dp4537
g12
g959
sg13
I2
sg14
(dp4538
sbsg963
g7
(g8
g9
NtRp4539
(dp4540
g12
g963
sg13
I1
sg14
(dp4541
sbsg967
g7
(g8
g9
NtRp4542
(dp4543
g12
g967
sg13
I1
sg14
(dp4544
sbsg971
g7
(g8
g9
NtRp4545
(dp4546
g12
g971
sg13
I1
sg14
(dp4547
sbsg975
g7
(g8
g9
NtRp4548
(dp4549
g12
g975
sg13
I1
sg14
(dp4550
sbsg979
g7
(g8
g9
NtRp4551
(dp4552
g12
g979
sg13
I1
sg14
(dp4553
sbsg983
g7
(g8
g9
NtRp4554
(dp4555
g12
g983
sg13
I1
sg14
(dp4556
sbsg987
g7
(g8
g9
NtRp4557
(dp4558
g12
g987
sg13
I1
sg14
(dp4559
sbsg991
g7
(g8
g9
NtRp4560
(dp4561
g12
g991
sg13
I1
sg14
(dp4562
sbsg995
g7
(g8
g9
NtRp4563
(dp4564
g12
g995
sg13
I1
sg14
(dp4565
sbsg999
g7
(g8
g9
NtRp4566
(dp4567
g12
g999
sg13
I1
sg14
(dp4568
sbsg1003
g7
(g8
g9
NtRp4569
(dp4570
g12
g1003
sg13
I1
sg14
(dp4571
sbsg1007
g7
(g8
g9
NtRp4572
(dp4573
g12
g1007
sg13
I5
sg14
(dp4574
sbsg1011
g7
(g8
g9
NtRp4575
(dp4576
g12
g1011
sg13
I1
sg14
(dp4577
sbsg1015
g7
(g8
g9
NtRp4578
(dp4579
g12
g1015
sg13
I1
sg14
(dp4580
sbsg1019
g7
(g8
g9
NtRp4581
(dp4582
g12
g1019
sg13
I2
sg14
(dp4583
sbsg1023
g7
(g8
g9
NtRp4584
(dp4585
g12
g1023
sg13
I3
sg14
(dp4586
sbsg1027
g7
(g8
g9
NtRp4587
(dp4588
g12
g1027
sg13
I1
sg14
(dp4589
sbsg1031
g7
(g8
g9
NtRp4590
(dp4591
g12
g1031
sg13
I2
sg14
(dp4592
sbsg1035
g7
(g8
g9
NtRp4593
(dp4594
g12
g1035
sg13
I1
sg14
(dp4595
sbsg1039
g7
(g8
g9
NtRp4596
(dp4597
g12
g1039
sg13
I1
sg14
(dp4598
sbsg1043
g7
(g8
g9
NtRp4599
(dp4600
g12
g1043
sg13
I3
sg14
(dp4601
sbsg1047
g7
(g8
g9
NtRp4602
(dp4603
g12
g1047
sg13
I1
sg14
(dp4604
sbsg1051
g7
(g8
g9
NtRp4605
(dp4606
g12
g1051
sg13
I1
sg14
(dp4607
sbsg1055
g7
(g8
g9
NtRp4608
(dp4609
g12
g1055
sg13
I1
sg14
(dp4610
sbsg1059
g7
(g8
g9
NtRp4611
(dp4612
g12
g1059
sg13
I1
sg14
(dp4613
sbsg1063
g7
(g8
g9
NtRp4614
(dp4615
g12
g1063
sg13
I1
sg14
(dp4616
sbsg1067
g7
(g8
g9
NtRp4617
(dp4618
g12
g1067
sg13
I1
sg14
(dp4619
sbsg1071
g7
(g8
g9
NtRp4620
(dp4621
g12
g1071
sg13
I17
sg14
(dp4622
sbsg1075
g7
(g8
g9
NtRp4623
(dp4624
g12
g1075
sg13
I1
sg14
(dp4625
sbsg1079
g7
(g8
g9
NtRp4626
(dp4627
g12
g1079
sg13
I1
sg14
(dp4628
g1083
I1
ssbsg1084
g7
(g8
g9
NtRp4629
(dp4630
g12
g1084
sg13
I2
sg14
(dp4631
sbsg1088
g7
(g8
g9
NtRp4632
(dp4633
g12
g1088
sg13
I4
sg14
(dp4634
sbsg1092
g7
(g8
g9
NtRp4635
(dp4636
g12
g1092
sg13
I1
sg14
(dp4637
sbsg1096
g7
(g8
g9
NtRp4638
(dp4639
g12
g1096
sg13
I2
sg14
(dp4640
sbsg1100
g7
(g8
g9
NtRp4641
(dp4642
g12
g1100
sg13
I1
sg14
(dp4643
sbsg1104
g7
(g8
g9
NtRp4644
(dp4645
g12
g1104
sg13
I1
sg14
(dp4646
sbsg1108
g7
(g8
g9
NtRp4647
(dp4648
g12
g1108
sg13
I1
sg14
(dp4649
sbsg1112
g7
(g8
g9
NtRp4650
(dp4651
g12
g1112
sg13
I1
sg14
(dp4652
sbsg1116
g7
(g8
g9
NtRp4653
(dp4654
g12
g1116
sg13
I1
sg14
(dp4655
sbsg1120
g7
(g8
g9
NtRp4656
(dp4657
g12
g1120
sg13
I1
sg14
(dp4658
sbsg1124
g7
(g8
g9
NtRp4659
(dp4660
g12
g1124
sg13
I1
sg14
(dp4661
sbsg1128
g7
(g8
g9
NtRp4662
(dp4663
g12
g1128
sg13
I1
sg14
(dp4664
sbsg1132
g7
(g8
g9
NtRp4665
(dp4666
g12
g1132
sg13
I1
sg14
(dp4667
sbsg1136
g7
(g8
g9
NtRp4668
(dp4669
g12
g1136
sg13
I2
sg14
(dp4670
sbsg1140
g7
(g8
g9
NtRp4671
(dp4672
g12
g1140
sg13
I1
sg14
(dp4673
g1144
I1
ssbsg1145
g7
(g8
g9
NtRp4674
(dp4675
g12
g1145
sg13
I1
sg14
(dp4676
g1149
I1
ssbsg1150
g7
(g8
g9
NtRp4677
(dp4678
g12
g1150
sg13
I1
sg14
(dp4679
sbsg1154
g7
(g8
g9
NtRp4680
(dp4681
g12
g1154
sg13
I1
sg14
(dp4682
sbsg1158
g7
(g8
g9
NtRp4683
(dp4684
g12
g1158
sg13
I1
sg14
(dp4685
sbsg1162
g7
(g8
g9
NtRp4686
(dp4687
g12
g1162
sg13
I7
sg14
(dp4688
sbsg1166
g7
(g8
g9
NtRp4689
(dp4690
g12
g1166
sg13
I1
sg14
(dp4691
sbsg1170
g7
(g8
g9
NtRp4692
(dp4693
g12
g1170
sg13
I1
sg14
(dp4694
g1174
I1
ssbsg1175
g7
(g8
g9
NtRp4695
(dp4696
g12
g1175
sg13
I1
sg14
(dp4697
sbsg1179
g7
(g8
g9
NtRp4698
(dp4699
g12
g1179
sg13
I1
sg14
(dp4700
g1183
I1
ssbsg1184
g7
(g8
g9
NtRp4701
(dp4702
g12
g1184
sg13
I1
sg14
(dp4703
sbsg1188
g7
(g8
g9
NtRp4704
(dp4705
g12
g1188
sg13
I1
sg14
(dp4706
sbsg1192
g7
(g8
g9
NtRp4707
(dp4708
g12
g1192
sg13
I1
sg14
(dp4709
sbsg1196
g7
(g8
g9
NtRp4710
(dp4711
g12
g1196
sg13
I1
sg14
(dp4712
sbsg1200
g7
(g8
g9
NtRp4713
(dp4714
g12
g1200
sg13
I1
sg14
(dp4715
sbsg1204
g7
(g8
g9
NtRp4716
(dp4717
g12
g1204
sg13
I1
sg14
(dp4718
sbsg1208
g7
(g8
g9
NtRp4719
(dp4720
g12
g1208
sg13
I1
sg14
(dp4721
sbsg1212
g7
(g8
g9
NtRp4722
(dp4723
g12
g1212
sg13
I1
sg14
(dp4724
sbsg1216
g7
(g8
g9
NtRp4725
(dp4726
g12
g1216
sg13
I2
sg14
(dp4727
sbsg1220
g7
(g8
g9
NtRp4728
(dp4729
g12
g1220
sg13
I2
sg14
(dp4730
sbsg1224
g7
(g8
g9
NtRp4731
(dp4732
g12
g1224
sg13
I1
sg14
(dp4733
sbsg1228
g7
(g8
g9
NtRp4734
(dp4735
g12
g1228
sg13
I1
sg14
(dp4736
sbsg1232
g7
(g8
g9
NtRp4737
(dp4738
g12
g1232
sg13
I1
sg14
(dp4739
sbsg1236
g7
(g8
g9
NtRp4740
(dp4741
g12
g1236
sg13
I2
sg14
(dp4742
sbsg1240
g7
(g8
g9
NtRp4743
(dp4744
g12
g1240
sg13
I1
sg14
(dp4745
sbsg1244
g7
(g8
g9
NtRp4746
(dp4747
g12
g1244
sg13
I1
sg14
(dp4748
sbsg1248
g7
(g8
g9
NtRp4749
(dp4750
g12
g1248
sg13
I1
sg14
(dp4751
sbsg1252
g7
(g8
g9
NtRp4752
(dp4753
g12
g1252
sg13
I4
sg14
(dp4754
sbsg1256
g7
(g8
g9
NtRp4755
(dp4756
g12
g1256
sg13
I1
sg14
(dp4757
sbsg1260
g7
(g8
g9
NtRp4758
(dp4759
g12
g1260
sg13
I1
sg14
(dp4760
sbsg1264
g7
(g8
g9
NtRp4761
(dp4762
g12
g1264
sg13
I1
sg14
(dp4763
sbsg1268
g7
(g8
g9
NtRp4764
(dp4765
g12
g1268
sg13
I1
sg14
(dp4766
sbsg1272
g7
(g8
g9
NtRp4767
(dp4768
g12
g1272
sg13
I1
sg14
(dp4769
sbsg1276
g7
(g8
g9
NtRp4770
(dp4771
g12
g1276
sg13
I1
sg14
(dp4772
sbsg1280
g7
(g8
g9
NtRp4773
(dp4774
g12
g1280
sg13
I1
sg14
(dp4775
sbsg1284
g7
(g8
g9
NtRp4776
(dp4777
g12
g1284
sg13
I1
sg14
(dp4778
sbsg1288
g7
(g8
g9
NtRp4779
(dp4780
g12
g1288
sg13
I1
sg14
(dp4781
sbsg1292
g7
(g8
g9
NtRp4782
(dp4783
g12
g1292
sg13
I1
sg14
(dp4784
sbsg1296
g7
(g8
g9
NtRp4785
(dp4786
g12
g1296
sg13
I1
sg14
(dp4787
sbsg1300
g7
(g8
g9
NtRp4788
(dp4789
g12
g1300
sg13
I1
sg14
(dp4790
sbsg1304
g7
(g8
g9
NtRp4791
(dp4792
g12
g1304
sg13
I1
sg14
(dp4793
sbsg1308
g7
(g8
g9
NtRp4794
(dp4795
g12
g1308
sg13
I2
sg14
(dp4796
sbsg1312
g7
(g8
g9
NtRp4797
(dp4798
g12
g1312
sg13
I1
sg14
(dp4799
sbsg1316
g7
(g8
g9
NtRp4800
(dp4801
g12
g1316
sg13
I1
sg14
(dp4802
sbsg1320
g7
(g8
g9
NtRp4803
(dp4804
g12
g1320
sg13
I1
sg14
(dp4805
sbsg1324
g7
(g8
g9
NtRp4806
(dp4807
g12
g1324
sg13
I1
sg14
(dp4808
sbsg1328
g7
(g8
g9
NtRp4809
(dp4810
g12
g1328
sg13
I1
sg14
(dp4811
sbsg1332
g7
(g8
g9
NtRp4812
(dp4813
g12
g1332
sg13
I1
sg14
(dp4814
sbsg1336
g7
(g8
g9
NtRp4815
(dp4816
g12
g1336
sg13
I4
sg14
(dp4817
sbsg1340
g7
(g8
g9
NtRp4818
(dp4819
g12
g1340
sg13
I1
sg14
(dp4820
sbsg1344
g7
(g8
g9
NtRp4821
(dp4822
g12
g1344
sg13
I1
sg14
(dp4823
sbsg1348
g7
(g8
g9
NtRp4824
(dp4825
g12
g1348
sg13
I1
sg14
(dp4826
sbsg1352
g7
(g8
g9
NtRp4827
(dp4828
g12
g1352
sg13
I1
sg14
(dp4829
sbsg1356
g7
(g8
g9
NtRp4830
(dp4831
g12
g1356
sg13
I1
sg14
(dp4832
sbsg1360
g7
(g8
g9
NtRp4833
(dp4834
g12
g1360
sg13
I1
sg14
(dp4835
sbsg1364
g7
(g8
g9
NtRp4836
(dp4837
g12
g1364
sg13
I1
sg14
(dp4838
sbsg1368
g7
(g8
g9
NtRp4839
(dp4840
g12
g1368
sg13
I2
sg14
(dp4841
sbsg1372
g7
(g8
g9
NtRp4842
(dp4843
g12
g1372
sg13
I2
sg14
(dp4844
sbsg1376
g7
(g8
g9
NtRp4845
(dp4846
g12
g1376
sg13
I1
sg14
(dp4847
sbsg1380
g7
(g8
g9
NtRp4848
(dp4849
g12
g1380
sg13
I19
sg14
(dp4850
sbsg1384
g7
(g8
g9
NtRp4851
(dp4852
g12
g1384
sg13
I1
sg14
(dp4853
sbsg1388
g7
(g8
g9
NtRp4854
(dp4855
g12
g1388
sg13
I1
sg14
(dp4856
sbsg1392
g7
(g8
g9
NtRp4857
(dp4858
g12
g1392
sg13
I1
sg14
(dp4859
sbsg1396
g7
(g8
g9
NtRp4860
(dp4861
g12
g1396
sg13
I3
sg14
(dp4862
sbsg1400
g7
(g8
g9
NtRp4863
(dp4864
g12
g1400
sg13
I1
sg14
(dp4865
sbsg1404
g7
(g8
g9
NtRp4866
(dp4867
g12
g1404
sg13
I1
sg14
(dp4868
sbsg1408
g7
(g8
g9
NtRp4869
(dp4870
g12
g1408
sg13
I3
sg14
(dp4871
sbsg1412
g7
(g8
g9
NtRp4872
(dp4873
g12
g1412
sg13
I1
sg14
(dp4874
sbsg1416
g7
(g8
g9
NtRp4875
(dp4876
g12
g1416
sg13
I16
sg14
(dp4877
sbsg1420
g7
(g8
g9
NtRp4878
(dp4879
g12
g1420
sg13
I1
sg14
(dp4880
g1424
I1
ssbsg1425
g7
(g8
g9
NtRp4881
(dp4882
g12
g1425
sg13
I1
sg14
(dp4883
sbsg1429
g7
(g8
g9
NtRp4884
(dp4885
g12
g1429
sg13
I3
sg14
(dp4886
sbsg1433
g7
(g8
g9
NtRp4887
(dp4888
g12
g1433
sg13
I1
sg14
(dp4889
sbsg1437
g7
(g8
g9
NtRp4890
(dp4891
g12
g1437
sg13
I3
sg14
(dp4892
sbsg1441
g7
(g8
g9
NtRp4893
(dp4894
g12
g1441
sg13
I1
sg14
(dp4895
sbsg1445
g7
(g8
g9
NtRp4896
(dp4897
g12
g1445
sg13
I1
sg14
(dp4898
sbsg1449
g7
(g8
g9
NtRp4899
(dp4900
g12
g1449
sg13
I1
sg14
(dp4901
sbsg1453
g7
(g8
g9
NtRp4902
(dp4903
g12
g1453
sg13
I1
sg14
(dp4904
sbsg1457
g7
(g8
g9
NtRp4905
(dp4906
g12
g1457
sg13
I1
sg14
(dp4907
sbsg1461
g7
(g8
g9
NtRp4908
(dp4909
g12
g1461
sg13
I1
sg14
(dp4910
sbsg1465
g7
(g8
g9
NtRp4911
(dp4912
g12
g1465
sg13
I1
sg14
(dp4913
sbsg1469
g7
(g8
g9
NtRp4914
(dp4915
g12
g1469
sg13
I1
sg14
(dp4916
sbsg1473
g7
(g8
g9
NtRp4917
(dp4918
g12
g1473
sg13
I1
sg14
(dp4919
sbsg1477
g7
(g8
g9
NtRp4920
(dp4921
g12
g1477
sg13
I1
sg14
(dp4922
g1481
I1
ssbsg1482
g7
(g8
g9
NtRp4923
(dp4924
g12
g1482
sg13
I1
sg14
(dp4925
sbsg1486
g7
(g8
g9
NtRp4926
(dp4927
g12
g1486
sg13
I14
sg14
(dp4928
sbsg1490
g7
(g8
g9
NtRp4929
(dp4930
g12
g1490
sg13
I4
sg14
(dp4931
sbsg1494
g7
(g8
g9
NtRp4932
(dp4933
g12
g1494
sg13
I1
sg14
(dp4934
sbsg1498
g7
(g8
g9
NtRp4935
(dp4936
g12
g1498
sg13
I1
sg14
(dp4937
sbsg1502
g7
(g8
g9
NtRp4938
(dp4939
g12
g1502
sg13
I1
sg14
(dp4940
sbsg1506
g7
(g8
g9
NtRp4941
(dp4942
g12
g1506
sg13
I1
sg14
(dp4943
sbsg1510
g7
(g8
g9
NtRp4944
(dp4945
g12
g1510
sg13
I1
sg14
(dp4946
sbsg1514
g7
(g8
g9
NtRp4947
(dp4948
g12
g1514
sg13
I1
sg14
(dp4949
sbsg1518
g7
(g8
g9
NtRp4950
(dp4951
g12
g1518
sg13
I1
sg14
(dp4952
sbsg1522
g7
(g8
g9
NtRp4953
(dp4954
g12
g1522
sg13
I1
sg14
(dp4955
sbsg1526
g7
(g8
g9
NtRp4956
(dp4957
g12
g1526
sg13
I1
sg14
(dp4958
sbsg1530
g7
(g8
g9
NtRp4959
(dp4960
g12
g1530
sg13
I1
sg14
(dp4961
sbsg1534
g7
(g8
g9
NtRp4962
(dp4963
g12
g1534
sg13
I1
sg14
(dp4964
sbsg1538
g7
(g8
g9
NtRp4965
(dp4966
g12
g1538
sg13
I1
sg14
(dp4967
sbsg1542
g7
(g8
g9
NtRp4968
(dp4969
g12
g1542
sg13
I1
sg14
(dp4970
sbsg1546
g7
(g8
g9
NtRp4971
(dp4972
g12
g1546
sg13
I3
sg14
(dp4973
sbsg1550
g7
(g8
g9
NtRp4974
(dp4975
g12
g1550
sg13
I1
sg14
(dp4976
sbsg1554
g7
(g8
g9
NtRp4977
(dp4978
g12
g1554
sg13
I2
sg14
(dp4979
sbsg1558
g7
(g8
g9
NtRp4980
(dp4981
g12
g1558
sg13
I1
sg14
(dp4982
sbsg1562
g7
(g8
g9
NtRp4983
(dp4984
g12
g1562
sg13
I1
sg14
(dp4985
sbsg1566
g7
(g8
g9
NtRp4986
(dp4987
g12
g1566
sg13
I1
sg14
(dp4988
sbsg1570
g7
(g8
g9
NtRp4989
(dp4990
g12
g1570
sg13
I1
sg14
(dp4991
sbsg1574
g7
(g8
g9
NtRp4992
(dp4993
g12
g1574
sg13
I3
sg14
(dp4994
sbsg1578
g7
(g8
g9
NtRp4995
(dp4996
g12
g1578
sg13
I1
sg14
(dp4997
sbsg1582
g7
(g8
g9
NtRp4998
(dp4999
g12
g1582
sg13
I1
sg14
(dp5000
sbsg1586
g7
(g8
g9
NtRp5001
(dp5002
g12
g1586
sg13
I1
sg14
(dp5003
sbsg1590
g7
(g8
g9
NtRp5004
(dp5005
g12
g1590
sg13
I1
sg14
(dp5006
sbsg1594
g7
(g8
g9
NtRp5007
(dp5008
g12
g1594
sg13
I1
sg14
(dp5009
sbsg1598
g7
(g8
g9
NtRp5010
(dp5011
g12
g1598
sg13
I1
sg14
(dp5012
sbsg1602
g7
(g8
g9
NtRp5013
(dp5014
g12
g1602
sg13
I1
sg14
(dp5015
sbsg1606
g7
(g8
g9
NtRp5016
(dp5017
g12
g1606
sg13
I2
sg14
(dp5018
sbsg1610
g7
(g8
g9
NtRp5019
(dp5020
g12
g1610
sg13
I2
sg14
(dp5021
sbsg1614
g7
(g8
g9
NtRp5022
(dp5023
g12
g1614
sg13
I1
sg14
(dp5024
sbsg1618
g7
(g8
g9
NtRp5025
(dp5026
g12
g1618
sg13
I2
sg14
(dp5027
sbsg1622
g7
(g8
g9
NtRp5028
(dp5029
g12
g1622
sg13
I3
sg14
(dp5030
sbsg1626
g7
(g8
g9
NtRp5031
(dp5032
g12
g1626
sg13
I2
sg14
(dp5033
sbsg1630
g7
(g8
g9
NtRp5034
(dp5035
g12
g1630
sg13
I1
sg14
(dp5036
sbsg1634
g7
(g8
g9
NtRp5037
(dp5038
g12
g1634
sg13
I21
sg14
(dp5039
sbsg1638
g7
(g8
g9
NtRp5040
(dp5041
g12
g1638
sg13
I1
sg14
(dp5042
sbsg1642
g7
(g8
g9
NtRp5043
(dp5044
g12
g1642
sg13
I1
sg14
(dp5045
sbsg1646
g7
(g8
g9
NtRp5046
(dp5047
g12
g1646
sg13
I6
sg14
(dp5048
g1650
I6
ssbsg1651
g7
(g8
g9
NtRp5049
(dp5050
g12
g1651
sg13
I1
sg14
(dp5051
sbsg1655
g7
(g8
g9
NtRp5052
(dp5053
g12
g1655
sg13
I3
sg14
(dp5054
g1659
I3
ssbsg1660
g7
(g8
g9
NtRp5055
(dp5056
g12
g1660
sg13
I1
sg14
(dp5057
sbsg1664
g7
(g8
g9
NtRp5058
(dp5059
g12
g1664
sg13
I2
sg14
(dp5060
sbsg1668
g7
(g8
g9
NtRp5061
(dp5062
g12
g1668
sg13
I1
sg14
(dp5063
sbsg1672
g7
(g8
g9
NtRp5064
(dp5065
g12
g1672
sg13
I1
sg14
(dp5066
sbsg1676
g7
(g8
g9
NtRp5067
(dp5068
g12
g1676
sg13
I1
sg14
(dp5069
sbsg1680
g7
(g8
g9
NtRp5070
(dp5071
g12
g1680
sg13
I1
sg14
(dp5072
sbsg1684
g7
(g8
g9
NtRp5073
(dp5074
g12
g1684
sg13
I1
sg14
(dp5075
sbsg1688
g7
(g8
g9
NtRp5076
(dp5077
g12
g1688
sg13
I1
sg14
(dp5078
sbsg1692
g7
(g8
g9
NtRp5079
(dp5080
g12
g1692
sg13
I1
sg14
(dp5081
sbsg1696
g7
(g8
g9
NtRp5082
(dp5083
g12
g1696
sg13
I1
sg14
(dp5084
sbsg1700
g7
(g8
g9
NtRp5085
(dp5086
g12
g1700
sg13
I1
sg14
(dp5087
sbsg1704
g7
(g8
g9
NtRp5088
(dp5089
g12
g1704
sg13
I1
sg14
(dp5090
sbsg1708
g7
(g8
g9
NtRp5091
(dp5092
g12
g1708
sg13
I2
sg14
(dp5093
sbsg1712
g7
(g8
g9
NtRp5094
(dp5095
g12
g1712
sg13
I1
sg14
(dp5096
sbsg1716
g7
(g8
g9
NtRp5097
(dp5098
g12
g1716
sg13
I1
sg14
(dp5099
sbsg1720
g7
(g8
g9
NtRp5100
(dp5101
g12
g1720
sg13
I1
sg14
(dp5102
sbsg1724
g7
(g8
g9
NtRp5103
(dp5104
g12
g1724
sg13
I1
sg14
(dp5105
sbsg1728
g7
(g8
g9
NtRp5106
(dp5107
g12
g1728
sg13
I1
sg14
(dp5108
sbsg1732
g7
(g8
g9
NtRp5109
(dp5110
g12
g1732
sg13
I1
sg14
(dp5111
sbsg1736
g7
(g8
g9
NtRp5112
(dp5113
g12
g1736
sg13
I1
sg14
(dp5114
sbsg1740
g7
(g8
g9
NtRp5115
(dp5116
g12
g1740
sg13
I1
sg14
(dp5117
sbsg1744
g7
(g8
g9
NtRp5118
(dp5119
g12
g1744
sg13
I1
sg14
(dp5120
sbsg1748
g7
(g8
g9
NtRp5121
(dp5122
g12
g1748
sg13
I1
sg14
(dp5123
sbsg1752
g7
(g8
g9
NtRp5124
(dp5125
g12
g1752
sg13
I1
sg14
(dp5126
sbsg1756
g7
(g8
g9
NtRp5127
(dp5128
g12
g1756
sg13
I1
sg14
(dp5129
sbsg1760
g7
(g8
g9
NtRp5130
(dp5131
g12
g1760
sg13
I1
sg14
(dp5132
sbsg1764
g7
(g8
g9
NtRp5133
(dp5134
g12
g1764
sg13
I1
sg14
(dp5135
sbsg1768
g7
(g8
g9
NtRp5136
(dp5137
g12
g1768
sg13
I1
sg14
(dp5138
sbsg1772
g7
(g8
g9
NtRp5139
(dp5140
g12
g1772
sg13
I1
sg14
(dp5141
sbsg1776
g7
(g8
g9
NtRp5142
(dp5143
g12
g1776
sg13
I3
sg14
(dp5144
sbsg1780
g7
(g8
g9
NtRp5145
(dp5146
g12
g1780
sg13
I4
sg14
(dp5147
g1784
I1
ssbsg1785
g7
(g8
g9
NtRp5148
(dp5149
g12
g1785
sg13
I1
sg14
(dp5150
sbsg1789
g7
(g8
g9
NtRp5151
(dp5152
g12
g1789
sg13
I1
sg14
(dp5153
sbsg1793
g7
(g8
g9
NtRp5154
(dp5155
g12
g1793
sg13
I1
sg14
(dp5156
sbsg1797
g7
(g8
g9
NtRp5157
(dp5158
g12
g1797
sg13
I1
sg14
(dp5159
sbsg1801
g7
(g8
g9
NtRp5160
(dp5161
g12
g1801
sg13
I2
sg14
(dp5162
sbsg1805
g7
(g8
g9
NtRp5163
(dp5164
g12
g1805
sg13
I4
sg14
(dp5165
sbsg1809
g7
(g8
g9
NtRp5166
(dp5167
g12
g1809
sg13
I1
sg14
(dp5168
sbsg1813
g7
(g8
g9
NtRp5169
(dp5170
g12
g1813
sg13
I2
sg14
(dp5171
sbsg1817
g7
(g8
g9
NtRp5172
(dp5173
g12
g1817
sg13
I1
sg14
(dp5174
sbsg1821
g7
(g8
g9
NtRp5175
(dp5176
g12
g1821
sg13
I1
sg14
(dp5177
sbsg1825
g7
(g8
g9
NtRp5178
(dp5179
g12
g1825
sg13
I6
sg14
(dp5180
sbsg1829
g7
(g8
g9
NtRp5181
(dp5182
g12
g1829
sg13
I1
sg14
(dp5183
sbsg1833
g7
(g8
g9
NtRp5184
(dp5185
g12
g1833
sg13
I1
sg14
(dp5186
g1837
I1
ssbsg1838
g7
(g8
g9
NtRp5187
(dp5188
g12
g1838
sg13
I1
sg14
(dp5189
sbsg1842
g7
(g8
g9
NtRp5190
(dp5191
g12
g1842
sg13
I1
sg14
(dp5192
sbsg1846
g7
(g8
g9
NtRp5193
(dp5194
g12
g1846
sg13
I1
sg14
(dp5195
sbsg1850
g7
(g8
g9
NtRp5196
(dp5197
g12
g1850
sg13
I3
sg14
(dp5198
sbsg1854
g7
(g8
g9
NtRp5199
(dp5200
g12
g1854
sg13
I2
sg14
(dp5201
sbsg1858
g7
(g8
g9
NtRp5202
(dp5203
g12
g1858
sg13
I1
sg14
(dp5204
sbsg1862
g7
(g8
g9
NtRp5205
(dp5206
g12
g1862
sg13
I1
sg14
(dp5207
sbsg1866
g7
(g8
g9
NtRp5208
(dp5209
g12
g1866
sg13
I2
sg14
(dp5210
sbsg1870
g7
(g8
g9
NtRp5211
(dp5212
g12
g1870
sg13
I1
sg14
(dp5213
g1874
I1
ssbsg1875
g7
(g8
g9
NtRp5214
(dp5215
g12
g1875
sg13
I1
sg14
(dp5216
sbsg1879
g7
(g8
g9
NtRp5217
(dp5218
g12
g1879
sg13
I2
sg14
(dp5219
sbsg1883
g7
(g8
g9
NtRp5220
(dp5221
g12
g1883
sg13
I1
sg14
(dp5222
sbsg1887
g7
(g8
g9
NtRp5223
(dp5224
g12
g1887
sg13
I1
sg14
(dp5225
sbsg1891
g7
(g8
g9
NtRp5226
(dp5227
g12
g1891
sg13
I1
sg14
(dp5228
sbsg1895
g7
(g8
g9
NtRp5229
(dp5230
g12
g1895
sg13
I2
sg14
(dp5231
sbsg1899
g7
(g8
g9
NtRp5232
(dp5233
g12
g1899
sg13
I1
sg14
(dp5234
sbsg1903
g7
(g8
g9
NtRp5235
(dp5236
g12
g1903
sg13
I1
sg14
(dp5237
sbsg1907
g7
(g8
g9
NtRp5238
(dp5239
g12
g1907
sg13
I1
sg14
(dp5240
sbsg1911
g7
(g8
g9
NtRp5241
(dp5242
g12
g1911
sg13
I2
sg14
(dp5243
sbsg1915
g7
(g8
g9
NtRp5244
(dp5245
g12
g1915
sg13
I1
sg14
(dp5246
sbsg1919
g7
(g8
g9
NtRp5247
(dp5248
g12
g1919
sg13
I1
sg14
(dp5249
sbsg1923
g7
(g8
g9
NtRp5250
(dp5251
g12
g1923
sg13
I1
sg14
(dp5252
sbsg1927
g7
(g8
g9
NtRp5253
(dp5254
g12
g1927
sg13
I1
sg14
(dp5255
sbsg1931
g7
(g8
g9
NtRp5256
(dp5257
g12
g1931
sg13
I1
sg14
(dp5258
sbsg1935
g7
(g8
g9
NtRp5259
(dp5260
g12
g1935
sg13
I2
sg14
(dp5261
sbsg1939
g7
(g8
g9
NtRp5262
(dp5263
g12
g1939
sg13
I3
sg14
(dp5264
sbsg1943
g7
(g8
g9
NtRp5265
(dp5266
g12
g1943
sg13
I6
sg14
(dp5267
sbsg1947
g7
(g8
g9
NtRp5268
(dp5269
g12
g1947
sg13
I1
sg14
(dp5270
sbsg1951
g7
(g8
g9
NtRp5271
(dp5272
g12
g1951
sg13
I1
sg14
(dp5273
sbsg1955
g7
(g8
g9
NtRp5274
(dp5275
g12
g1955
sg13
I1
sg14
(dp5276
sbsg1959
g7
(g8
g9
NtRp5277
(dp5278
g12
g1959
sg13
I1
sg14
(dp5279
sbsg1963
g7
(g8
g9
NtRp5280
(dp5281
g12
g1963
sg13
I1
sg14
(dp5282
sbsg1967
g7
(g8
g9
NtRp5283
(dp5284
g12
g1967
sg13
I8
sg14
(dp5285
sbsg1971
g7
(g8
g9
NtRp5286
(dp5287
g12
g1971
sg13
I1
sg14
(dp5288
sbsg1975
g7
(g8
g9
NtRp5289
(dp5290
g12
g1975
sg13
I3
sg14
(dp5291
sbsg1979
g7
(g8
g9
NtRp5292
(dp5293
g12
g1979
sg13
I2
sg14
(dp5294
sbsg1983
g7
(g8
g9
NtRp5295
(dp5296
g12
g1983
sg13
I3
sg14
(dp5297
g1987
I3
ssbsg1988
g7
(g8
g9
NtRp5298
(dp5299
g12
g1988
sg13
I2
sg14
(dp5300
sbsg1992
g7
(g8
g9
NtRp5301
(dp5302
g12
g1992
sg13
I1
sg14
(dp5303
sbsg1996
g7
(g8
g9
NtRp5304
(dp5305
g12
g1996
sg13
I1
sg14
(dp5306
sbsg2000
g7
(g8
g9
NtRp5307
(dp5308
g12
g2000
sg13
I3
sg14
(dp5309
sbsg2004
g7
(g8
g9
NtRp5310
(dp5311
g12
g2004
sg13
I1
sg14
(dp5312
sbsg2008
g7
(g8
g9
NtRp5313
(dp5314
g12
g2008
sg13
I6
sg14
(dp5315
sbsg2012
g7
(g8
g9
NtRp5316
(dp5317
g12
g2012
sg13
I1
sg14
(dp5318
sbsg2016
g7
(g8
g9
NtRp5319
(dp5320
g12
g2016
sg13
I4
sg14
(dp5321
sbsg2020
g7
(g8
g9
NtRp5322
(dp5323
g12
g2020
sg13
I1
sg14
(dp5324
sbsg2024
g7
(g8
g9
NtRp5325
(dp5326
g12
g2024
sg13
I1
sg14
(dp5327
sbsg2028
g7
(g8
g9
NtRp5328
(dp5329
g12
g2028
sg13
I3
sg14
(dp5330
sbsg2032
g7
(g8
g9
NtRp5331
(dp5332
g12
g2032
sg13
I1
sg14
(dp5333
g2036
I1
ssbsg2037
g7
(g8
g9
NtRp5334
(dp5335
g12
g2037
sg13
I1
sg14
(dp5336
sbsg2041
g7
(g8
g9
NtRp5337
(dp5338
g12
g2041
sg13
I2
sg14
(dp5339
g2045
I2
ssbsg2046
g7
(g8
g9
NtRp5340
(dp5341
g12
g2046
sg13
I2
sg14
(dp5342
sbsg2050
g7
(g8
g9
NtRp5343
(dp5344
g12
g2050
sg13
I1
sg14
(dp5345
sbsg2054
g7
(g8
g9
NtRp5346
(dp5347
g12
g2054
sg13
I1
sg14
(dp5348
sbsg2058
g7
(g8
g9
NtRp5349
(dp5350
g12
g2058
sg13
I1
sg14
(dp5351
sbsg2062
g7
(g8
g9
NtRp5352
(dp5353
g12
g2062
sg13
I1
sg14
(dp5354
sbsg2066
g7
(g8
g9
NtRp5355
(dp5356
g12
g2066
sg13
I1
sg14
(dp5357
sbsg2070
g7
(g8
g9
NtRp5358
(dp5359
g12
g2070
sg13
I1
sg14
(dp5360
sbsg2074
g7
(g8
g9
NtRp5361
(dp5362
g12
g2074
sg13
I1
sg14
(dp5363
sbsg2078
g7
(g8
g9
NtRp5364
(dp5365
g12
g2078
sg13
I1
sg14
(dp5366
sbsg2082
g7
(g8
g9
NtRp5367
(dp5368
g12
g2082
sg13
I1
sg14
(dp5369
sbsg2086
g7
(g8
g9
NtRp5370
(dp5371
g12
g2086
sg13
I1
sg14
(dp5372
g2090
I1
ssbsg2091
g7
(g8
g9
NtRp5373
(dp5374
g12
g2091
sg13
I2
sg14
(dp5375
sbsg2095
g7
(g8
g9
NtRp5376
(dp5377
g12
g2095
sg13
I3
sg14
(dp5378
sbsg2099
g7
(g8
g9
NtRp5379
(dp5380
g12
g2099
sg13
I1
sg14
(dp5381
sbsg2103
g7
(g8
g9
NtRp5382
(dp5383
g12
g2103
sg13
I1
sg14
(dp5384
sbsg2107
g7
(g8
g9
NtRp5385
(dp5386
g12
g2107
sg13
I2
sg14
(dp5387
sbsg2111
g7
(g8
g9
NtRp5388
(dp5389
g12
g2111
sg13
I2
sg14
(dp5390
sbsg2115
g7
(g8
g9
NtRp5391
(dp5392
g12
g2115
sg13
I1
sg14
(dp5393
sbsg2119
g7
(g8
g9
NtRp5394
(dp5395
g12
g2119
sg13
I1
sg14
(dp5396
sbsg2123
g7
(g8
g9
NtRp5397
(dp5398
g12
g2123
sg13
I1
sg14
(dp5399
sbsg2127
g7
(g8
g9
NtRp5400
(dp5401
g12
g2127
sg13
I1
sg14
(dp5402
sbsg2131
g7
(g8
g9
NtRp5403
(dp5404
g12
g2131
sg13
I1
sg14
(dp5405
sbsg2135
g7
(g8
g9
NtRp5406
(dp5407
g12
g2135
sg13
I1
sg14
(dp5408
sbsg2139
g7
(g8
g9
NtRp5409
(dp5410
g12
g2139
sg13
I1
sg14
(dp5411
sbsg2143
g7
(g8
g9
NtRp5412
(dp5413
g12
g2143
sg13
I1
sg14
(dp5414
sbsg2147
g7
(g8
g9
NtRp5415
(dp5416
g12
g2147
sg13
I1
sg14
(dp5417
sbsg2151
g7
(g8
g9
NtRp5418
(dp5419
g12
g2151
sg13
I3
sg14
(dp5420
sbsg2155
g7
(g8
g9
NtRp5421
(dp5422
g12
g2155
sg13
I1
sg14
(dp5423
sbsg2159
g7
(g8
g9
NtRp5424
(dp5425
g12
g2159
sg13
I1
sg14
(dp5426
g2163
I1
ssbsg2164
g7
(g8
g9
NtRp5427
(dp5428
g12
g2164
sg13
I1
sg14
(dp5429
sbsg2168
g7
(g8
g9
NtRp5430
(dp5431
g12
g2168
sg13
I2
sg14
(dp5432
sbsg2172
g7
(g8
g9
NtRp5433
(dp5434
g12
g2172
sg13
I1
sg14
(dp5435
sbsg2176
g7
(g8
g9
NtRp5436
(dp5437
g12
g2176
sg13
I1
sg14
(dp5438
sbssg2180
I44
sg2181
I2
sg2182
I200
sg2183
Nsg2184
g2185
((lp5439
g2187
ag2188
ag2189
ag2190
ag2191
ag2192
ag2193
ag2194
ag2195
ag2196
ag2197
ag2198
ag2199
ag2200
ag2201
ag2202
ag2203
ag2204
ag2205
ag2206
ag2207
ag2208
ag2209
ag2210
ag2211
ag2212
ag2213
ag2214
ag2215
ag2216
ag2217
ag2218
ag2219
ag2220
ag2221
ag2222
ag2223
ag2224
ag2225
ag2226
ag2227
ag2228
ag2229
ag2230
atRp5440
sg2232
I45
sg2233
I951
sg2234
Nsg2239
g2240
(S'\x10&\x07\x00\xd0:'
tRp5441
sg2242
Nsg2243
I15
sbsI4
(istatistics.SolverStatistics
StatData
p5442
(dp5443
g4
(dp5444
g6
g7
(g8
g9
NtRp5445
(dp5446
g12
g6
sg13
I1
sg14
(dp5447
sbsg16
g7
(g8
g9
NtRp5448
(dp5449
g12
g16
sg13
I1
sg14
(dp5450
g20
I1
ssbsg21
g7
(g8
g9
NtRp5451
(dp5452
g12
g21
sg13
I1
sg14
(dp5453
sbsg25
g7
(g8
g9
NtRp5454
(dp5455
g12
g25
sg13
I2
sg14
(dp5456
sbsg29
g7
(g8
g9
NtRp5457
(dp5458
g12
g29
sg13
I4
sg14
(dp5459
sbsg33
g7
(g8
g9
NtRp5460
(dp5461
g12
g33
sg13
I1
sg14
(dp5462
sbsg37
g7
(g8
g9
NtRp5463
(dp5464
g12
g37
sg13
I1
sg14
(dp5465
sbsg41
g7
(g8
g9
NtRp5466
(dp5467
g12
g41
sg13
I1
sg14
(dp5468
sbsg45
g7
(g8
g9
NtRp5469
(dp5470
g12
g45
sg13
I1
sg14
(dp5471
sbsg49
g7
(g8
g9
NtRp5472
(dp5473
g12
g49
sg13
I1
sg14
(dp5474
sbsg53
g7
(g8
g9
NtRp5475
(dp5476
g12
g53
sg13
I1
sg14
(dp5477
sbsg57
g7
(g8
g9
NtRp5478
(dp5479
g12
g57
sg13
I1
sg14
(dp5480
g61
I1
ssbsg62
g7
(g8
g9
NtRp5481
(dp5482
g12
g62
sg13
I1
sg14
(dp5483
sbsg66
g7
(g8
g9
NtRp5484
(dp5485
g12
g66
sg13
I1
sg14
(dp5486
sbsg70
g7
(g8
g9
NtRp5487
(dp5488
g12
g70
sg13
I1
sg14
(dp5489
sbsg74
g7
(g8
g9
NtRp5490
(dp5491
g12
g74
sg13
I1
sg14
(dp5492
g78
I1
ssbsg79
g7
(g8
g9
NtRp5493
(dp5494
g12
g79
sg13
I1
sg14
(dp5495
sbsg83
g7
(g8
g9
NtRp5496
(dp5497
g12
g83
sg13
I1
sg14
(dp5498
sbsg87
g7
(g8
g9
NtRp5499
(dp5500
g12
g87
sg13
I1
sg14
(dp5501
sbsg91
g7
(g8
g9
NtRp5502
(dp5503
g12
g91
sg13
I1
sg14
(dp5504
sbsg95
g7
(g8
g9
NtRp5505
(dp5506
g12
g95
sg13
I1
sg14
(dp5507
sbsg99
g7
(g8
g9
NtRp5508
(dp5509
g12
g99
sg13
I1
sg14
(dp5510
g103
I1
ssbsg104
g7
(g8
g9
NtRp5511
(dp5512
g12
g104
sg13
I1
sg14
(dp5513
sbsg108
g7
(g8
g9
NtRp5514
(dp5515
g12
g108
sg13
I1
sg14
(dp5516
g112
I1
ssbsg113
g7
(g8
g9
NtRp5517
(dp5518
g12
g113
sg13
I14
sg14
(dp5519
sbsg117
g7
(g8
g9
NtRp5520
(dp5521
g12
g117
sg13
I1
sg14
(dp5522
sbsg121
g7
(g8
g9
NtRp5523
(dp5524
g12
g121
sg13
I2
sg14
(dp5525
sbsg125
g7
(g8
g9
NtRp5526
(dp5527
g12
g125
sg13
I1
sg14
(dp5528
sbsg129
g7
(g8
g9
NtRp5529
(dp5530
g12
g129
sg13
I2
sg14
(dp5531
sbsg133
g7
(g8
g9
NtRp5532
(dp5533
g12
g133
sg13
I2
sg14
(dp5534
sbsg137
g7
(g8
g9
NtRp5535
(dp5536
g12
g137
sg13
I1
sg14
(dp5537
sbsg141
g7
(g8
g9
NtRp5538
(dp5539
g12
g141
sg13
I1
sg14
(dp5540
sbsg145
g7
(g8
g9
NtRp5541
(dp5542
g12
g145
sg13
I1
sg14
(dp5543
sbsg149
g7
(g8
g9
NtRp5544
(dp5545
g12
g149
sg13
I2
sg14
(dp5546
sbsg153
g7
(g8
g9
NtRp5547
(dp5548
g12
g153
sg13
I3
sg14
(dp5549
sbsg157
g7
(g8
g9
NtRp5550
(dp5551
g12
g157
sg13
I1
sg14
(dp5552
sbsg161
g7
(g8
g9
NtRp5553
(dp5554
g12
g161
sg13
I1
sg14
(dp5555
sbsg165
g7
(g8
g9
NtRp5556
(dp5557
g12
g165
sg13
I2
sg14
(dp5558
sbsg169
g7
(g8
g9
NtRp5559
(dp5560
g12
g169
sg13
I1
sg14
(dp5561
sbsg173
g7
(g8
g9
NtRp5562
(dp5563
g12
g173
sg13
I14
sg14
(dp5564
sbsg177
g7
(g8
g9
NtRp5565
(dp5566
g12
g177
sg13
I1
sg14
(dp5567
g181
I1
ssbsg182
g7
(g8
g9
NtRp5568
(dp5569
g12
g182
sg13
I1
sg14
(dp5570
sbsg186
g7
(g8
g9
NtRp5571
(dp5572
g12
g186
sg13
I1
sg14
(dp5573
sbsg190
g7
(g8
g9
NtRp5574
(dp5575
g12
g190
sg13
I2
sg14
(dp5576
sbsg194
g7
(g8
g9
NtRp5577
(dp5578
g12
g194
sg13
I1
sg14
(dp5579
sbsg198
g7
(g8
g9
NtRp5580
(dp5581
g12
g198
sg13
I1
sg14
(dp5582
sbsg202
g7
(g8
g9
NtRp5583
(dp5584
g12
g202
sg13
I1
sg14
(dp5585
sbsg206
g7
(g8
g9
NtRp5586
(dp5587
g12
g206
sg13
I1
sg14
(dp5588
sbsg210
g7
(g8
g9
NtRp5589
(dp5590
g12
g210
sg13
I1
sg14
(dp5591
sbsg214
g7
(g8
g9
NtRp5592
(dp5593
g12
g214
sg13
I1
sg14
(dp5594
sbsg218
g7
(g8
g9
NtRp5595
(dp5596
g12
g218
sg13
I6
sg14
(dp5597
sbsg222
g7
(g8
g9
NtRp5598
(dp5599
g12
g222
sg13
I1
sg14
(dp5600
sbsg226
g7
(g8
g9
NtRp5601
(dp5602
g12
g226
sg13
I1
sg14
(dp5603
sbsg230
g7
(g8
g9
NtRp5604
(dp5605
g12
g230
sg13
I1
sg14
(dp5606
sbsg234
g7
(g8
g9
NtRp5607
(dp5608
g12
g234
sg13
I1
sg14
(dp5609
sbsg238
g7
(g8
g9
NtRp5610
(dp5611
g12
g238
sg13
I1
sg14
(dp5612
sbsg242
g7
(g8
g9
NtRp5613
(dp5614
g12
g242
sg13
I1
sg14
(dp5615
sbsg246
g7
(g8
g9
NtRp5616
(dp5617
g12
g246
sg13
I1
sg14
(dp5618
sbsg250
g7
(g8
g9
NtRp5619
(dp5620
g12
g250
sg13
I1
sg14
(dp5621
sbsg254
g7
(g8
g9
NtRp5622
(dp5623
g12
g254
sg13
I1
sg14
(dp5624
sbsg258
g7
(g8
g9
NtRp5625
(dp5626
g12
g258
sg13
I2
sg14
(dp5627
g262
I2
ssbsg263
g7
(g8
g9
NtRp5628
(dp5629
g12
g263
sg13
I1
sg14
(dp5630
sbsg267
g7
(g8
g9
NtRp5631
(dp5632
g12
g267
sg13
I1
sg14
(dp5633
sbsg271
g7
(g8
g9
NtRp5634
(dp5635
g12
g271
sg13
I1
sg14
(dp5636
g275
I1
ssbsg276
g7
(g8
g9
NtRp5637
(dp5638
g12
g276
sg13
I1
sg14
(dp5639
sbsg280
g7
(g8
g9
NtRp5640
(dp5641
g12
g280
sg13
I1
sg14
(dp5642
g284
I1
ssbsg285
g7
(g8
g9
NtRp5643
(dp5644
g12
g285
sg13
I3
sg14
(dp5645
sbsg289
g7
(g8
g9
NtRp5646
(dp5647
g12
g289
sg13
I1
sg14
(dp5648
sbsg293
g7
(g8
g9
NtRp5649
(dp5650
g12
g293
sg13
I1
sg14
(dp5651
sbsg297
g7
(g8
g9
NtRp5652
(dp5653
g12
g297
sg13
I1
sg14
(dp5654
sbsg301
g7
(g8
g9
NtRp5655
(dp5656
g12
g301
sg13
I1
sg14
(dp5657
sbsg305
g7
(g8
g9
NtRp5658
(dp5659
g12
g305
sg13
I2
sg14
(dp5660
g309
I2
ssbsg310
g7
(g8
g9
NtRp5661
(dp5662
g12
g310
sg13
I1
sg14
(dp5663
sbsg314
g7
(g8
g9
NtRp5664
(dp5665
g12
g314
sg13
I1
sg14
(dp5666
sbsg318
g7
(g8
g9
NtRp5667
(dp5668
g12
g318
sg13
I2
sg14
(dp5669
sbsg322
g7
(g8
g9
NtRp5670
(dp5671
g12
g322
sg13
I2
sg14
(dp5672
sbsg326
g7
(g8
g9
NtRp5673
(dp5674
g12
g326
sg13
I2
sg14
(dp5675
sbsg330
g7
(g8
g9
NtRp5676
(dp5677
g12
g330
sg13
I3
sg14
(dp5678
sbsg334
g7
(g8
g9
NtRp5679
(dp5680
g12
g334
sg13
I15
sg14
(dp5681
sbsg338
g7
(g8
g9
NtRp5682
(dp5683
g12
g338
sg13
I3
sg14
(dp5684
sbsg342
g7
(g8
g9
NtRp5685
(dp5686
g12
g342
sg13
I1
sg14
(dp5687
sbsg346
g7
(g8
g9
NtRp5688
(dp5689
g12
g346
sg13
I1
sg14
(dp5690
sbsg350
g7
(g8
g9
NtRp5691
(dp5692
g12
g350
sg13
I1
sg14
(dp5693
g354
I1
ssbsg355
g7
(g8
g9
NtRp5694
(dp5695
g12
g355
sg13
I1
sg14
(dp5696
g359
I1
ssbsg360
g7
(g8
g9
NtRp5697
(dp5698
g12
g360
sg13
I1
sg14
(dp5699
sbsg364
g7
(g8
g9
NtRp5700
(dp5701
g12
g364
sg13
I1
sg14
(dp5702
sbsg368
g7
(g8
g9
NtRp5703
(dp5704
g12
g368
sg13
I1
sg14
(dp5705
sbsg372
g7
(g8
g9
NtRp5706
(dp5707
g12
g372
sg13
I2
sg14
(dp5708
sbsg376
g7
(g8
g9
NtRp5709
(dp5710
g12
g376
sg13
I2
sg14
(dp5711
g380
I2
ssbsg381
g7
(g8
g9
NtRp5712
(dp5713
g12
g381
sg13
I4
sg14
(dp5714
sbsg385
g7
(g8
g9
NtRp5715
(dp5716
g12
g385
sg13
I3
sg14
(dp5717
sbsg389
g7
(g8
g9
NtRp5718
(dp5719
g12
g389
sg13
I2
sg14
(dp5720
sbsg393
g7
(g8
g9
NtRp5721
(dp5722
g12
g393
sg13
I1
sg14
(dp5723
sbsg397
g7
(g8
g9
NtRp5724
(dp5725
g12
g397
sg13
I1
sg14
(dp5726
sbsg401
g7
(g8
g9
NtRp5727
(dp5728
g12
g401
sg13
I1
sg14
(dp5729
sbsg405
g7
(g8
g9
NtRp5730
(dp5731
g12
g405
sg13
I1
sg14
(dp5732
sbsg409
g7
(g8
g9
NtRp5733
(dp5734
g12
g409
sg13
I1
sg14
(dp5735
sbsg413
g7
(g8
g9
NtRp5736
(dp5737
g12
g413
sg13
I1
sg14
(dp5738
g417
I1
ssbsg418
g7
(g8
g9
NtRp5739
(dp5740
g12
g418
sg13
I1
sg14
(dp5741
sbsg422
g7
(g8
g9
NtRp5742
(dp5743
g12
g422
sg13
I1
sg14
(dp5744
sbsg426
g7
(g8
g9
NtRp5745
(dp5746
g12
g426
sg13
I1
sg14
(dp5747
sbsg430
g7
(g8
g9
NtRp5748
(dp5749
g12
g430
sg13
I1
sg14
(dp5750
g434
I1
ssbsg435
g7
(g8
g9
NtRp5751
(dp5752
g12
g435
sg13
I1
sg14
(dp5753
sbsg439
g7
(g8
g9
NtRp5754
(dp5755
g12
g439
sg13
I1
sg14
(dp5756
sbsg443
g7
(g8
g9
NtRp5757
(dp5758
g12
g443
sg13
I1
sg14
(dp5759
sbsg447
g7
(g8
g9
NtRp5760
(dp5761
g12
g447
sg13
I1
sg14
(dp5762
sbsg451
g7
(g8
g9
NtRp5763
(dp5764
g12
g451
sg13
I1
sg14
(dp5765
sbsg455
g7
(g8
g9
NtRp5766
(dp5767
g12
g455
sg13
I2
sg14
(dp5768
sbsg459
g7
(g8
g9
NtRp5769
(dp5770
g12
g459
sg13
I15
sg14
(dp5771
sbsg463
g7
(g8
g9
NtRp5772
(dp5773
g12
g463
sg13
I3
sg14
(dp5774
sbsg467
g7
(g8
g9
NtRp5775
(dp5776
g12
g467
sg13
I1
sg14
(dp5777
sbsg471
g7
(g8
g9
NtRp5778
(dp5779
g12
g471
sg13
I1
sg14
(dp5780
g475
I1
ssbsg476
g7
(g8
g9
NtRp5781
(dp5782
g12
g476
sg13
I1
sg14
(dp5783
sbsg480
g7
(g8
g9
NtRp5784
(dp5785
g12
g480
sg13
I1
sg14
(dp5786
g484
I1
ssbsg485
g7
(g8
g9
NtRp5787
(dp5788
g12
g485
sg13
I1
sg14
(dp5789
g489
I1
ssbsg490
g7
(g8
g9
NtRp5790
(dp5791
g12
g490
sg13
I1
sg14
(dp5792
sbsg494
g7
(g8
g9
NtRp5793
(dp5794
g12
g494
sg13
I1
sg14
(dp5795
sbsg498
g7
(g8
g9
NtRp5796
(dp5797
g12
g498
sg13
I1
sg14
(dp5798
sbsg502
g7
(g8
g9
NtRp5799
(dp5800
g12
g502
sg13
I1
sg14
(dp5801
sbsg506
g7
(g8
g9
NtRp5802
(dp5803
g12
g506
sg13
I1
sg14
(dp5804
sbsg510
g7
(g8
g9
NtRp5805
(dp5806
g12
g510
sg13
I1
sg14
(dp5807
sbsg514
g7
(g8
g9
NtRp5808
(dp5809
g12
g514
sg13
I1
sg14
(dp5810
sbsg518
g7
(g8
g9
NtRp5811
(dp5812
g12
g518
sg13
I1
sg14
(dp5813
sbsg522
g7
(g8
g9
NtRp5814
(dp5815
g12
g522
sg13
I1
sg14
(dp5816
sbsg526
g7
(g8
g9
NtRp5817
(dp5818
g12
g526
sg13
I1
sg14
(dp5819
sbsg530
g7
(g8
g9
NtRp5820
(dp5821
g12
g530
sg13
I1
sg14
(dp5822
g534
I1
ssbsg535
g7
(g8
g9
NtRp5823
(dp5824
g12
g535
sg13
I1
sg14
(dp5825
sbsg539
g7
(g8
g9
NtRp5826
(dp5827
g12
g539
sg13
I5
sg14
(dp5828
sbsg543
g7
(g8
g9
NtRp5829
(dp5830
g12
g543
sg13
I2
sg14
(dp5831
sbsg547
g7
(g8
g9
NtRp5832
(dp5833
g12
g547
sg13
I1
sg14
(dp5834
sbsg551
g7
(g8
g9
NtRp5835
(dp5836
g12
g551
sg13
I3
sg14
(dp5837
sbsg555
g7
(g8
g9
NtRp5838
(dp5839
g12
g555
sg13
I3
sg14
(dp5840
g559
I3
ssbsg560
g7
(g8
g9
NtRp5841
(dp5842
g12
g560
sg13
I1
sg14
(dp5843
sbsg564
g7
(g8
g9
NtRp5844
(dp5845
g12
g564
sg13
I15
sg14
(dp5846
sbsg568
g7
(g8
g9
NtRp5847
(dp5848
g12
g568
sg13
I1
sg14
(dp5849
sbsg572
g7
(g8
g9
NtRp5850
(dp5851
g12
g572
sg13
I1
sg14
(dp5852
sbsg576
g7
(g8
g9
NtRp5853
(dp5854
g12
g576
sg13
I1
sg14
(dp5855
sbsg580
g7
(g8
g9
NtRp5856
(dp5857
g12
g580
sg13
I6
sg14
(dp5858
g584
I6
ssbsg585
g7
(g8
g9
NtRp5859
(dp5860
g12
g585
sg13
I1
sg14
(dp5861
sbsg589
g7
(g8
g9
NtRp5862
(dp5863
g12
g589
sg13
I3
sg14
(dp5864
sbsg593
g7
(g8
g9
NtRp5865
(dp5866
g12
g593
sg13
I1
sg14
(dp5867
sbsg597
g7
(g8
g9
NtRp5868
(dp5869
g12
g597
sg13
I1
sg14
(dp5870
sbsg601
g7
(g8
g9
NtRp5871
(dp5872
g12
g601
sg13
I1
sg14
(dp5873
sbsg605
g7
(g8
g9
NtRp5874
(dp5875
g12
g605
sg13
I6
sg14
(dp5876
sbsg609
g7
(g8
g9
NtRp5877
(dp5878
g12
g609
sg13
I1
sg14
(dp5879
sbsg613
g7
(g8
g9
NtRp5880
(dp5881
g12
g613
sg13
I1
sg14
(dp5882
g617
I1
ssbsg618
g7
(g8
g9
NtRp5883
(dp5884
g12
g618
sg13
I1
sg14
(dp5885
sbsg622
g7
(g8
g9
NtRp5886
(dp5887
g12
g622
sg13
I5
sg14
(dp5888
sbsg626
g7
(g8
g9
NtRp5889
(dp5890
g12
g626
sg13
I1
sg14
(dp5891
sbsg630
g7
(g8
g9
NtRp5892
(dp5893
g12
g630
sg13
I1
sg14
(dp5894
sbsg634
g7
(g8
g9
NtRp5895
(dp5896
g12
g634
sg13
I8
sg14
(dp5897
sbsg638
g7
(g8
g9
NtRp5898
(dp5899
g12
g638
sg13
I1
sg14
(dp5900
sbsg642
g7
(g8
g9
NtRp5901
(dp5902
g12
g642
sg13
I1
sg14
(dp5903
sbsg646
g7
(g8
g9
NtRp5904
(dp5905
g12
g646
sg13
I1
sg14
(dp5906
sbsg650
g7
(g8
g9
NtRp5907
(dp5908
g12
g650
sg13
I1
sg14
(dp5909
g654
I2
ssbsg655
g7
(g8
g9
NtRp5910
(dp5911
g12
g655
sg13
I1
sg14
(dp5912
sbsg659
g7
(g8
g9
NtRp5913
(dp5914
g12
g659
sg13
I1
sg14
(dp5915
sbsg663
g7
(g8
g9
NtRp5916
(dp5917
g12
g663
sg13
I1
sg14
(dp5918
sbsg667
g7
(g8
g9
NtRp5919
(dp5920
g12
g667
sg13
I1
sg14
(dp5921
sbsg671
g7
(g8
g9
NtRp5922
(dp5923
g12
g671
sg13
I4
sg14
(dp5924
sbsg675
g7
(g8
g9
NtRp5925
(dp5926
g12
g675
sg13
I1
sg14
(dp5927
sbsg679
g7
(g8
g9
NtRp5928
(dp5929
g12
g679
sg13
I1
sg14
(dp5930
sbsg683
g7
(g8
g9
NtRp5931
(dp5932
g12
g683
sg13
I3
sg14
(dp5933
sbsg687
g7
(g8
g9
NtRp5934
(dp5935
g12
g687
sg13
I1
sg14
(dp5936
sbsg691
g7
(g8
g9
NtRp5937
(dp5938
g12
g691
sg13
I2
sg14
(dp5939
sbsg695
g7
(g8
g9
NtRp5940
(dp5941
g12
g695
sg13
I1
sg14
(dp5942
sbsg699
g7
(g8
g9
NtRp5943
(dp5944
g12
g699
sg13
I1
sg14
(dp5945
sbsg703
g7
(g8
g9
NtRp5946
(dp5947
g12
g703
sg13
I3
sg14
(dp5948
g707
I2
ssbsg708
g7
(g8
g9
NtRp5949
(dp5950
g12
g708
sg13
I1
sg14
(dp5951
sbsg712
g7
(g8
g9
NtRp5952
(dp5953
g12
g712
sg13
I1
sg14
(dp5954
sbsg716
g7
(g8
g9
NtRp5955
(dp5956
g12
g716
sg13
I2
sg14
(dp5957
sbsg720
g7
(g8
g9
NtRp5958
(dp5959
g12
g720
sg13
I1
sg14
(dp5960
sbsg724
g7
(g8
g9
NtRp5961
(dp5962
g12
g724
sg13
I1
sg14
(dp5963
sbsg728
g7
(g8
g9
NtRp5964
(dp5965
g12
g728
sg13
I1
sg14
(dp5966
sbsg732
g7
(g8
g9
NtRp5967
(dp5968
g12
g732
sg13
I1
sg14
(dp5969
sbsg736
g7
(g8
g9
NtRp5970
(dp5971
g12
g736
sg13
I1
sg14
(dp5972
sbsg740
g7
(g8
g9
NtRp5973
(dp5974
g12
g740
sg13
I4
sg14
(dp5975
sbsg744
g7
(g8
g9
NtRp5976
(dp5977
g12
g744
sg13
I1
sg14
(dp5978
sbsg748
g7
(g8
g9
NtRp5979
(dp5980
g12
g748
sg13
I3
sg14
(dp5981
sbsg752
g7
(g8
g9
NtRp5982
(dp5983
g12
g752
sg13
I3
sg14
(dp5984
sbsg756
g7
(g8
g9
NtRp5985
(dp5986
g12
g756
sg13
I12
sg14
(dp5987
sbsg760
g7
(g8
g9
NtRp5988
(dp5989
g12
g760
sg13
I1
sg14
(dp5990
sbsg764
g7
(g8
g9
NtRp5991
(dp5992
g12
g764
sg13
I1
sg14
(dp5993
sbsg768
g7
(g8
g9
NtRp5994
(dp5995
g12
g768
sg13
I3
sg14
(dp5996
g772
I3
ssbsg773
g7
(g8
g9
NtRp5997
(dp5998
g12
g773
sg13
I2
sg14
(dp5999
sbsg777
g7
(g8
g9
NtRp6000
(dp6001
g12
g777
sg13
I2
sg14
(dp6002
sbsg781
g7
(g8
g9
NtRp6003
(dp6004
g12
g781
sg13
I1
sg14
(dp6005
sbsg785
g7
(g8
g9
NtRp6006
(dp6007
g12
g785
sg13
I1
sg14
(dp6008
sbsg789
g7
(g8
g9
NtRp6009
(dp6010
g12
g789
sg13
I2
sg14
(dp6011
sbsg793
g7
(g8
g9
NtRp6012
(dp6013
g12
g793
sg13
I1
sg14
(dp6014
sbsg797
g7
(g8
g9
NtRp6015
(dp6016
g12
g797
sg13
I1
sg14
(dp6017
sbsg801
g7
(g8
g9
NtRp6018
(dp6019
g12
g801
sg13
I1
sg14
(dp6020
sbsg805
g7
(g8
g9
NtRp6021
(dp6022
g12
g805
sg13
I1
sg14
(dp6023
sbsg809
g7
(g8
g9
NtRp6024
(dp6025
g12
g809
sg13
I1
sg14
(dp6026
sbsg813
g7
(g8
g9
NtRp6027
(dp6028
g12
g813
sg13
I1
sg14
(dp6029
sbsg817
g7
(g8
g9
NtRp6030
(dp6031
g12
g817
sg13
I2
sg14
(dp6032
sbsg821
g7
(g8
g9
NtRp6033
(dp6034
g12
g821
sg13
I11
sg14
(dp6035
sbsg825
g7
(g8
g9
NtRp6036
(dp6037
g12
g825
sg13
I1
sg14
(dp6038
sbsg829
g7
(g8
g9
NtRp6039
(dp6040
g12
g829
sg13
I1
sg14
(dp6041
sbsg833
g7
(g8
g9
NtRp6042
(dp6043
g12
g833
sg13
I1
sg14
(dp6044
sbsg837
g7
(g8
g9
NtRp6045
(dp6046
g12
g837
sg13
I1
sg14
(dp6047
sbsg841
g7
(g8
g9
NtRp6048
(dp6049
g12
g841
sg13
I1
sg14
(dp6050
sbsg845
g7
(g8
g9
NtRp6051
(dp6052
g12
g845
sg13
I14
sg14
(dp6053
sbsg849
g7
(g8
g9
NtRp6054
(dp6055
g12
g849
sg13
I1
sg14
(dp6056
sbsg853
g7
(g8
g9
NtRp6057
(dp6058
g12
g853
sg13
I1
sg14
(dp6059
sbsg857
g7
(g8
g9
NtRp6060
(dp6061
g12
g857
sg13
I1
sg14
(dp6062
sbsg861
g7
(g8
g9
NtRp6063
(dp6064
g12
g861
sg13
I1
sg14
(dp6065
sbsg865
g7
(g8
g9
NtRp6066
(dp6067
g12
g865
sg13
I1
sg14
(dp6068
sbsg869
g7
(g8
g9
NtRp6069
(dp6070
g12
g869
sg13
I1
sg14
(dp6071
sbsg873
g7
(g8
g9
NtRp6072
(dp6073
g12
g873
sg13
I1
sg14
(dp6074
sbsg877
g7
(g8
g9
NtRp6075
(dp6076
g12
g877
sg13
I1
sg14
(dp6077
sbsg881
g7
(g8
g9
NtRp6078
(dp6079
g12
g881
sg13
I3
sg14
(dp6080
sbsg885
g7
(g8
g9
NtRp6081
(dp6082
g12
g885
sg13
I1
sg14
(dp6083
sbsg889
g7
(g8
g9
NtRp6084
(dp6085
g12
g889
sg13
I1
sg14
(dp6086
sbsg893
g7
(g8
g9
NtRp6087
(dp6088
g12
g893
sg13
I1
sg14
(dp6089
sbsg897
g7
(g8
g9
NtRp6090
(dp6091
g12
g897
sg13
I2
sg14
(dp6092
sbsg901
g7
(g8
g9
NtRp6093
(dp6094
g12
g901
sg13
I1
sg14
(dp6095
sbsg905
g7
(g8
g9
NtRp6096
(dp6097
g12
g905
sg13
I1
sg14
(dp6098
sbsg909
g7
(g8
g9
NtRp6099
(dp6100
g12
g909
sg13
I1
sg14
(dp6101
sbsg913
g7
(g8
g9
NtRp6102
(dp6103
g12
g913
sg13
I1
sg14
(dp6104
sbsg917
g7
(g8
g9
NtRp6105
(dp6106
g12
g917
sg13
I1
sg14
(dp6107
sbsg921
g7
(g8
g9
NtRp6108
(dp6109
g12
g921
sg13
I6
sg14
(dp6110
sbsg925
g7
(g8
g9
NtRp6111
(dp6112
g12
g925
sg13
I1
sg14
(dp6113
sbsg929
g7
(g8
g9
NtRp6114
(dp6115
g12
g929
sg13
I1
sg14
(dp6116
sbsg933
g7
(g8
g9
NtRp6117
(dp6118
g12
g933
sg13
I1
sg14
(dp6119
sbsg937
g7
(g8
g9
NtRp6120
(dp6121
g12
g937
sg13
I1
sg14
(dp6122
sbsg941
g7
(g8
g9
NtRp6123
(dp6124
g12
g941
sg13
I1
sg14
(dp6125
sbsg945
g7
(g8
g9
NtRp6126
(dp6127
g12
g945
sg13
I4
sg14
(dp6128
g949
I4
ssbsg950
g7
(g8
g9
NtRp6129
(dp6130
g12
g950
sg13
I1
sg14
(dp6131
g954
I1
ssbsg955
g7
(g8
g9
NtRp6132
(dp6133
g12
g955
sg13
I2
sg14
(dp6134
sbsg959
g7
(g8
g9
NtRp6135
(dp6136
g12
g959
sg13
I2
sg14
(dp6137
sbsg963
g7
(g8
g9
NtRp6138
(dp6139
g12
g963
sg13
I1
sg14
(dp6140
sbsg967
g7
(g8
g9
NtRp6141
(dp6142
g12
g967
sg13
I1
sg14
(dp6143
sbsg971
g7
(g8
g9
NtRp6144
(dp6145
g12
g971
sg13
I1
sg14
(dp6146
sbsg975
g7
(g8
g9
NtRp6147
(dp6148
g12
g975
sg13
I1
sg14
(dp6149
sbsg979
g7
(g8
g9
NtRp6150
(dp6151
g12
g979
sg13
I1
sg14
(dp6152
sbsg983
g7
(g8
g9
NtRp6153
(dp6154
g12
g983
sg13
I1
sg14
(dp6155
sbsg987
g7
(g8
g9
NtRp6156
(dp6157
g12
g987
sg13
I1
sg14
(dp6158
sbsg991
g7
(g8
g9
NtRp6159
(dp6160
g12
g991
sg13
I1
sg14
(dp6161
sbsg995
g7
(g8
g9
NtRp6162
(dp6163
g12
g995
sg13
I1
sg14
(dp6164
sbsg999
g7
(g8
g9
NtRp6165
(dp6166
g12
g999
sg13
I1
sg14
(dp6167
sbsg1003
g7
(g8
g9
NtRp6168
(dp6169
g12
g1003
sg13
I1
sg14
(dp6170
sbsg1007
g7
(g8
g9
NtRp6171
(dp6172
g12
g1007
sg13
I5
sg14
(dp6173
sbsg1011
g7
(g8
g9
NtRp6174
(dp6175
g12
g1011
sg13
I1
sg14
(dp6176
sbsg1015
g7
(g8
g9
NtRp6177
(dp6178
g12
g1015
sg13
I1
sg14
(dp6179
sbsg1019
g7
(g8
g9
NtRp6180
(dp6181
g12
g1019
sg13
I2
sg14
(dp6182
sbsg1023
g7
(g8
g9
NtRp6183
(dp6184
g12
g1023
sg13
I3
sg14
(dp6185
sbsg1027
g7
(g8
g9
NtRp6186
(dp6187
g12
g1027
sg13
I1
sg14
(dp6188
sbsg1031
g7
(g8
g9
NtRp6189
(dp6190
g12
g1031
sg13
I2
sg14
(dp6191
sbsg1035
g7
(g8
g9
NtRp6192
(dp6193
g12
g1035
sg13
I1
sg14
(dp6194
sbsg1039
g7
(g8
g9
NtRp6195
(dp6196
g12
g1039
sg13
I1
sg14
(dp6197
sbsg1043
g7
(g8
g9
NtRp6198
(dp6199
g12
g1043
sg13
I3
sg14
(dp6200
sbsg1047
g7
(g8
g9
NtRp6201
(dp6202
g12
g1047
sg13
I1
sg14
(dp6203
sbsg1051
g7
(g8
g9
NtRp6204
(dp6205
g12
g1051
sg13
I1
sg14
(dp6206
sbsg1055
g7
(g8
g9
NtRp6207
(dp6208
g12
g1055
sg13
I1
sg14
(dp6209
sbsg1059
g7
(g8
g9
NtRp6210
(dp6211
g12
g1059
sg13
I1
sg14
(dp6212
sbsg1063
g7
(g8
g9
NtRp6213
(dp6214
g12
g1063
sg13
I1
sg14
(dp6215
sbsg1067
g7
(g8
g9
NtRp6216
(dp6217
g12
g1067
sg13
I1
sg14
(dp6218
sbsg1071
g7
(g8
g9
NtRp6219
(dp6220
g12
g1071
sg13
I17
sg14
(dp6221
sbsg1075
g7
(g8
g9
NtRp6222
(dp6223
g12
g1075
sg13
I1
sg14
(dp6224
sbsg1079
g7
(g8
g9
NtRp6225
(dp6226
g12
g1079
sg13
I1
sg14
(dp6227
g1083
I1
ssbsg1084
g7
(g8
g9
NtRp6228
(dp6229
g12
g1084
sg13
I2
sg14
(dp6230
sbsg1088
g7
(g8
g9
NtRp6231
(dp6232
g12
g1088
sg13
I4
sg14
(dp6233
sbsg1092
g7
(g8
g9
NtRp6234
(dp6235
g12
g1092
sg13
I1
sg14
(dp6236
sbsg1096
g7
(g8
g9
NtRp6237
(dp6238
g12
g1096
sg13
I2
sg14
(dp6239
sbsg1100
g7
(g8
g9
NtRp6240
(dp6241
g12
g1100
sg13
I1
sg14
(dp6242
sbsg1104
g7
(g8
g9
NtRp6243
(dp6244
g12
g1104
sg13
I1
sg14
(dp6245
sbsg1108
g7
(g8
g9
NtRp6246
(dp6247
g12
g1108
sg13
I1
sg14
(dp6248
sbsg1112
g7
(g8
g9
NtRp6249
(dp6250
g12
g1112
sg13
I1
sg14
(dp6251
sbsg1116
g7
(g8
g9
NtRp6252
(dp6253
g12
g1116
sg13
I1
sg14
(dp6254
sbsg1120
g7
(g8
g9
NtRp6255
(dp6256
g12
g1120
sg13
I1
sg14
(dp6257
sbsg1124
g7
(g8
g9
NtRp6258
(dp6259
g12
g1124
sg13
I1
sg14
(dp6260
sbsg1128
g7
(g8
g9
NtRp6261
(dp6262
g12
g1128
sg13
I1
sg14
(dp6263
sbsg1132
g7
(g8
g9
NtRp6264
(dp6265
g12
g1132
sg13
I1
sg14
(dp6266
sbsg1136
g7
(g8
g9
NtRp6267
(dp6268
g12
g1136
sg13
I2
sg14
(dp6269
sbsg1140
g7
(g8
g9
NtRp6270
(dp6271
g12
g1140
sg13
I1
sg14
(dp6272
g1144
I1
ssbsg1145
g7
(g8
g9
NtRp6273
(dp6274
g12
g1145
sg13
I1
sg14
(dp6275
g1149
I1
ssbsg1150
g7
(g8
g9
NtRp6276
(dp6277
g12
g1150
sg13
I1
sg14
(dp6278
sbsg1154
g7
(g8
g9
NtRp6279
(dp6280
g12
g1154
sg13
I1
sg14
(dp6281
sbsg1158
g7
(g8
g9
NtRp6282
(dp6283
g12
g1158
sg13
I1
sg14
(dp6284
sbsg1162
g7
(g8
g9
NtRp6285
(dp6286
g12
g1162
sg13
I7
sg14
(dp6287
sbsg1166
g7
(g8
g9
NtRp6288
(dp6289
g12
g1166
sg13
I1
sg14
(dp6290
sbsg1170
g7
(g8
g9
NtRp6291
(dp6292
g12
g1170
sg13
I1
sg14
(dp6293
g1174
I1
ssbsg1175
g7
(g8
g9
NtRp6294
(dp6295
g12
g1175
sg13
I1
sg14
(dp6296
sbsg1179
g7
(g8
g9
NtRp6297
(dp6298
g12
g1179
sg13
I1
sg14
(dp6299
g1183
I1
ssbsg1184
g7
(g8
g9
NtRp6300
(dp6301
g12
g1184
sg13
I1
sg14
(dp6302
sbsg1188
g7
(g8
g9
NtRp6303
(dp6304
g12
g1188
sg13
I1
sg14
(dp6305
sbsg1192
g7
(g8
g9
NtRp6306
(dp6307
g12
g1192
sg13
I1
sg14
(dp6308
sbsg1196
g7
(g8
g9
NtRp6309
(dp6310
g12
g1196
sg13
I1
sg14
(dp6311
sbsg1200
g7
(g8
g9
NtRp6312
(dp6313
g12
g1200
sg13
I1
sg14
(dp6314
sbsg1204
g7
(g8
g9
NtRp6315
(dp6316
g12
g1204
sg13
I1
sg14
(dp6317
sbsg1208
g7
(g8
g9
NtRp6318
(dp6319
g12
g1208
sg13
I1
sg14
(dp6320
sbsg1212
g7
(g8
g9
NtRp6321
(dp6322
g12
g1212
sg13
I1
sg14
(dp6323
sbsg1216
g7
(g8
g9
NtRp6324
(dp6325
g12
g1216
sg13
I2
sg14
(dp6326
sbsg1220
g7
(g8
g9
NtRp6327
(dp6328
g12
g1220
sg13
I2
sg14
(dp6329
sbsg1224
g7
(g8
g9
NtRp6330
(dp6331
g12
g1224
sg13
I1
sg14
(dp6332
sbsg1228
g7
(g8
g9
NtRp6333
(dp6334
g12
g1228
sg13
I1
sg14
(dp6335
sbsg1232
g7
(g8
g9
NtRp6336
(dp6337
g12
g1232
sg13
I1
sg14
(dp6338
sbsg1236
g7
(g8
g9
NtRp6339
(dp6340
g12
g1236
sg13
I2
sg14
(dp6341
sbsg1240
g7
(g8
g9
NtRp6342
(dp6343
g12
g1240
sg13
I1
sg14
(dp6344
sbsg1244
g7
(g8
g9
NtRp6345
(dp6346
g12
g1244
sg13
I1
sg14
(dp6347
sbsg1248
g7
(g8
g9
NtRp6348
(dp6349
g12
g1248
sg13
I1
sg14
(dp6350
sbsg1252
g7
(g8
g9
NtRp6351
(dp6352
g12
g1252
sg13
I4
sg14
(dp6353
sbsg1256
g7
(g8
g9
NtRp6354
(dp6355
g12
g1256
sg13
I1
sg14
(dp6356
sbsg1260
g7
(g8
g9
NtRp6357
(dp6358
g12
g1260
sg13
I1
sg14
(dp6359
sbsg1264
g7
(g8
g9
NtRp6360
(dp6361
g12
g1264
sg13
I1
sg14
(dp6362
sbsg1268
g7
(g8
g9
NtRp6363
(dp6364
g12
g1268
sg13
I1
sg14
(dp6365
sbsg1272
g7
(g8
g9
NtRp6366
(dp6367
g12
g1272
sg13
I1
sg14
(dp6368
sbsg1276
g7
(g8
g9
NtRp6369
(dp6370
g12
g1276
sg13
I1
sg14
(dp6371
sbsg1280
g7
(g8
g9
NtRp6372
(dp6373
g12
g1280
sg13
I1
sg14
(dp6374
sbsg1284
g7
(g8
g9
NtRp6375
(dp6376
g12
g1284
sg13
I1
sg14
(dp6377
sbsg1288
g7
(g8
g9
NtRp6378
(dp6379
g12
g1288
sg13
I1
sg14
(dp6380
sbsg1292
g7
(g8
g9
NtRp6381
(dp6382
g12
g1292
sg13
I1
sg14
(dp6383
sbsg1296
g7
(g8
g9
NtRp6384
(dp6385
g12
g1296
sg13
I1
sg14
(dp6386
sbsg1300
g7
(g8
g9
NtRp6387
(dp6388
g12
g1300
sg13
I1
sg14
(dp6389
sbsg1304
g7
(g8
g9
NtRp6390
(dp6391
g12
g1304
sg13
I1
sg14
(dp6392
sbsg1308
g7
(g8
g9
NtRp6393
(dp6394
g12
g1308
sg13
I2
sg14
(dp6395
sbsg1312
g7
(g8
g9
NtRp6396
(dp6397
g12
g1312
sg13
I1
sg14
(dp6398
sbsg1316
g7
(g8
g9
NtRp6399
(dp6400
g12
g1316
sg13
I1
sg14
(dp6401
sbsg1320
g7
(g8
g9
NtRp6402
(dp6403
g12
g1320
sg13
I1
sg14
(dp6404
sbsg1324
g7
(g8
g9
NtRp6405
(dp6406
g12
g1324
sg13
I1
sg14
(dp6407
sbsg1328
g7
(g8
g9
NtRp6408
(dp6409
g12
g1328
sg13
I1
sg14
(dp6410
sbsg1332
g7
(g8
g9
NtRp6411
(dp6412
g12
g1332
sg13
I1
sg14
(dp6413
sbsg1336
g7
(g8
g9
NtRp6414
(dp6415
g12
g1336
sg13
I4
sg14
(dp6416
sbsg1340
g7
(g8
g9
NtRp6417
(dp6418
g12
g1340
sg13
I1
sg14
(dp6419
sbsg1344
g7
(g8
g9
NtRp6420
(dp6421
g12
g1344
sg13
I1
sg14
(dp6422
sbsg1348
g7
(g8
g9
NtRp6423
(dp6424
g12
g1348
sg13
I1
sg14
(dp6425
sbsg1352
g7
(g8
g9
NtRp6426
(dp6427
g12
g1352
sg13
I1
sg14
(dp6428
sbsg1356
g7
(g8
g9
NtRp6429
(dp6430
g12
g1356
sg13
I1
sg14
(dp6431
sbsg1360
g7
(g8
g9
NtRp6432
(dp6433
g12
g1360
sg13
I1
sg14
(dp6434
sbsg1364
g7
(g8
g9
NtRp6435
(dp6436
g12
g1364
sg13
I1
sg14
(dp6437
sbsg1368
g7
(g8
g9
NtRp6438
(dp6439
g12
g1368
sg13
I2
sg14
(dp6440
sbsg1372
g7
(g8
g9
NtRp6441
(dp6442
g12
g1372
sg13
I2
sg14
(dp6443
sbsg1376
g7
(g8
g9
NtRp6444
(dp6445
g12
g1376
sg13
I1
sg14
(dp6446
sbsg1380
g7
(g8
g9
NtRp6447
(dp6448
g12
g1380
sg13
I19
sg14
(dp6449
sbsg1384
g7
(g8
g9
NtRp6450
(dp6451
g12
g1384
sg13
I1
sg14
(dp6452
sbsg1388
g7
(g8
g9
NtRp6453
(dp6454
g12
g1388
sg13
I1
sg14
(dp6455
sbsg1392
g7
(g8
g9
NtRp6456
(dp6457
g12
g1392
sg13
I1
sg14
(dp6458
sbsg1396
g7
(g8
g9
NtRp6459
(dp6460
g12
g1396
sg13
I3
sg14
(dp6461
sbsg1400
g7
(g8
g9
NtRp6462
(dp6463
g12
g1400
sg13
I1
sg14
(dp6464
sbsg1404
g7
(g8
g9
NtRp6465
(dp6466
g12
g1404
sg13
I1
sg14
(dp6467
sbsg1408
g7
(g8
g9
NtRp6468
(dp6469
g12
g1408
sg13
I3
sg14
(dp6470
sbsg1412
g7
(g8
g9
NtRp6471
(dp6472
g12
g1412
sg13
I1
sg14
(dp6473
sbsg1416
g7
(g8
g9
NtRp6474
(dp6475
g12
g1416
sg13
I16
sg14
(dp6476
sbsg1420
g7
(g8
g9
NtRp6477
(dp6478
g12
g1420
sg13
I1
sg14
(dp6479
g1424
I1
ssbsg1425
g7
(g8
g9
NtRp6480
(dp6481
g12
g1425
sg13
I1
sg14
(dp6482
sbsg1429
g7
(g8
g9
NtRp6483
(dp6484
g12
g1429
sg13
I3
sg14
(dp6485
sbsg1433
g7
(g8
g9
NtRp6486
(dp6487
g12
g1433
sg13
I1
sg14
(dp6488
sbsg1437
g7
(g8
g9
NtRp6489
(dp6490
g12
g1437
sg13
I3
sg14
(dp6491
sbsg1441
g7
(g8
g9
NtRp6492
(dp6493
g12
g1441
sg13
I1
sg14
(dp6494
sbsg1445
g7
(g8
g9
NtRp6495
(dp6496
g12
g1445
sg13
I1
sg14
(dp6497
sbsg1449
g7
(g8
g9
NtRp6498
(dp6499
g12
g1449
sg13
I1
sg14
(dp6500
sbsg1453
g7
(g8
g9
NtRp6501
(dp6502
g12
g1453
sg13
I1
sg14
(dp6503
sbsg1457
g7
(g8
g9
NtRp6504
(dp6505
g12
g1457
sg13
I1
sg14
(dp6506
sbsg1461
g7
(g8
g9
NtRp6507
(dp6508
g12
g1461
sg13
I1
sg14
(dp6509
sbsg1465
g7
(g8
g9
NtRp6510
(dp6511
g12
g1465
sg13
I1
sg14
(dp6512
sbsg1469
g7
(g8
g9
NtRp6513
(dp6514
g12
g1469
sg13
I1
sg14
(dp6515
sbsg1473
g7
(g8
g9
NtRp6516
(dp6517
g12
g1473
sg13
I1
sg14
(dp6518
sbsg1477
g7
(g8
g9
NtRp6519
(dp6520
g12
g1477
sg13
I1
sg14
(dp6521
g1481
I1
ssbsg1482
g7
(g8
g9
NtRp6522
(dp6523
g12
g1482
sg13
I1
sg14
(dp6524
sbsg1486
g7
(g8
g9
NtRp6525
(dp6526
g12
g1486
sg13
I14
sg14
(dp6527
sbsg1490
g7
(g8
g9
NtRp6528
(dp6529
g12
g1490
sg13
I4
sg14
(dp6530
sbsg1494
g7
(g8
g9
NtRp6531
(dp6532
g12
g1494
sg13
I1
sg14
(dp6533
sbsg1498
g7
(g8
g9
NtRp6534
(dp6535
g12
g1498
sg13
I1
sg14
(dp6536
sbsg1502
g7
(g8
g9
NtRp6537
(dp6538
g12
g1502
sg13
I1
sg14
(dp6539
sbsg1506
g7
(g8
g9
NtRp6540
(dp6541
g12
g1506
sg13
I1
sg14
(dp6542
sbsg1510
g7
(g8
g9
NtRp6543
(dp6544
g12
g1510
sg13
I1
sg14
(dp6545
sbsg1514
g7
(g8
g9
NtRp6546
(dp6547
g12
g1514
sg13
I1
sg14
(dp6548
sbsg1518
g7
(g8
g9
NtRp6549
(dp6550
g12
g1518
sg13
I1
sg14
(dp6551
sbsg1522
g7
(g8
g9
NtRp6552
(dp6553
g12
g1522
sg13
I1
sg14
(dp6554
sbsg1526
g7
(g8
g9
NtRp6555
(dp6556
g12
g1526
sg13
I1
sg14
(dp6557
sbsg1530
g7
(g8
g9
NtRp6558
(dp6559
g12
g1530
sg13
I1
sg14
(dp6560
sbsg1534
g7
(g8
g9
NtRp6561
(dp6562
g12
g1534
sg13
I1
sg14
(dp6563
sbsg1538
g7
(g8
g9
NtRp6564
(dp6565
g12
g1538
sg13
I1
sg14
(dp6566
sbsg1542
g7
(g8
g9
NtRp6567
(dp6568
g12
g1542
sg13
I1
sg14
(dp6569
sbsg1546
g7
(g8
g9
NtRp6570
(dp6571
g12
g1546
sg13
I3
sg14
(dp6572
sbsg1550
g7
(g8
g9
NtRp6573
(dp6574
g12
g1550
sg13
I1
sg14
(dp6575
sbsg1554
g7
(g8
g9
NtRp6576
(dp6577
g12
g1554
sg13
I2
sg14
(dp6578
sbsg1558
g7
(g8
g9
NtRp6579
(dp6580
g12
g1558
sg13
I1
sg14
(dp6581
sbsg1562
g7
(g8
g9
NtRp6582
(dp6583
g12
g1562
sg13
I1
sg14
(dp6584
sbsg1566
g7
(g8
g9
NtRp6585
(dp6586
g12
g1566
sg13
I1
sg14
(dp6587
sbsg1570
g7
(g8
g9
NtRp6588
(dp6589
g12
g1570
sg13
I1
sg14
(dp6590
sbsg1574
g7
(g8
g9
NtRp6591
(dp6592
g12
g1574
sg13
I3
sg14
(dp6593
sbsg1578
g7
(g8
g9
NtRp6594
(dp6595
g12
g1578
sg13
I1
sg14
(dp6596
sbsg1582
g7
(g8
g9
NtRp6597
(dp6598
g12
g1582
sg13
I1
sg14
(dp6599
sbsg1586
g7
(g8
g9
NtRp6600
(dp6601
g12
g1586
sg13
I1
sg14
(dp6602
sbsg1590
g7
(g8
g9
NtRp6603
(dp6604
g12
g1590
sg13
I1
sg14
(dp6605
sbsg1594
g7
(g8
g9
NtRp6606
(dp6607
g12
g1594
sg13
I1
sg14
(dp6608
sbsg1598
g7
(g8
g9
NtRp6609
(dp6610
g12
g1598
sg13
I1
sg14
(dp6611
sbsg1602
g7
(g8
g9
NtRp6612
(dp6613
g12
g1602
sg13
I1
sg14
(dp6614
sbsg1606
g7
(g8
g9
NtRp6615
(dp6616
g12
g1606
sg13
I2
sg14
(dp6617
sbsg1610
g7
(g8
g9
NtRp6618
(dp6619
g12
g1610
sg13
I2
sg14
(dp6620
sbsg1614
g7
(g8
g9
NtRp6621
(dp6622
g12
g1614
sg13
I1
sg14
(dp6623
sbsg1618
g7
(g8
g9
NtRp6624
(dp6625
g12
g1618
sg13
I2
sg14
(dp6626
sbsg1622
g7
(g8
g9
NtRp6627
(dp6628
g12
g1622
sg13
I3
sg14
(dp6629
sbsg1626
g7
(g8
g9
NtRp6630
(dp6631
g12
g1626
sg13
I2
sg14
(dp6632
sbsg1630
g7
(g8
g9
NtRp6633
(dp6634
g12
g1630
sg13
I1
sg14
(dp6635
sbsg1634
g7
(g8
g9
NtRp6636
(dp6637
g12
g1634
sg13
I21
sg14
(dp6638
sbsg1638
g7
(g8
g9
NtRp6639
(dp6640
g12
g1638
sg13
I1
sg14
(dp6641
sbsg1642
g7
(g8
g9
NtRp6642
(dp6643
g12
g1642
sg13
I1
sg14
(dp6644
sbsg1646
g7
(g8
g9
NtRp6645
(dp6646
g12
g1646
sg13
I6
sg14
(dp6647
g1650
I6
ssbsg1651
g7
(g8
g9
NtRp6648
(dp6649
g12
g1651
sg13
I1
sg14
(dp6650
sbsg1655
g7
(g8
g9
NtRp6651
(dp6652
g12
g1655
sg13
I3
sg14
(dp6653
g1659
I3
ssbsg1660
g7
(g8
g9
NtRp6654
(dp6655
g12
g1660
sg13
I1
sg14
(dp6656
sbsg1664
g7
(g8
g9
NtRp6657
(dp6658
g12
g1664
sg13
I2
sg14
(dp6659
sbsg1668
g7
(g8
g9
NtRp6660
(dp6661
g12
g1668
sg13
I1
sg14
(dp6662
sbsg1672
g7
(g8
g9
NtRp6663
(dp6664
g12
g1672
sg13
I1
sg14
(dp6665
sbsg1676
g7
(g8
g9
NtRp6666
(dp6667
g12
g1676
sg13
I1
sg14
(dp6668
sbsg1680
g7
(g8
g9
NtRp6669
(dp6670
g12
g1680
sg13
I1
sg14
(dp6671
sbsg1684
g7
(g8
g9
NtRp6672
(dp6673
g12
g1684
sg13
I1
sg14
(dp6674
sbsg1688
g7
(g8
g9
NtRp6675
(dp6676
g12
g1688
sg13
I1
sg14
(dp6677
sbsg1692
g7
(g8
g9
NtRp6678
(dp6679
g12
g1692
sg13
I1
sg14
(dp6680
sbsg1696
g7
(g8
g9
NtRp6681
(dp6682
g12
g1696
sg13
I1
sg14
(dp6683
sbsg1700
g7
(g8
g9
NtRp6684
(dp6685
g12
g1700
sg13
I1
sg14
(dp6686
sbsg1704
g7
(g8
g9
NtRp6687
(dp6688
g12
g1704
sg13
I1
sg14
(dp6689
sbsg1708
g7
(g8
g9
NtRp6690
(dp6691
g12
g1708
sg13
I2
sg14
(dp6692
sbsg1712
g7
(g8
g9
NtRp6693
(dp6694
g12
g1712
sg13
I1
sg14
(dp6695
sbsg1716
g7
(g8
g9
NtRp6696
(dp6697
g12
g1716
sg13
I1
sg14
(dp6698
sbsg1720
g7
(g8
g9
NtRp6699
(dp6700
g12
g1720
sg13
I1
sg14
(dp6701
sbsg1724
g7
(g8
g9
NtRp6702
(dp6703
g12
g1724
sg13
I1
sg14
(dp6704
sbsg1728
g7
(g8
g9
NtRp6705
(dp6706
g12
g1728
sg13
I1
sg14
(dp6707
sbsg1732
g7
(g8
g9
NtRp6708
(dp6709
g12
g1732
sg13
I1
sg14
(dp6710
sbsg1736
g7
(g8
g9
NtRp6711
(dp6712
g12
g1736
sg13
I1
sg14
(dp6713
sbsg1740
g7
(g8
g9
NtRp6714
(dp6715
g12
g1740
sg13
I1
sg14
(dp6716
sbsg1744
g7
(g8
g9
NtRp6717
(dp6718
g12
g1744
sg13
I1
sg14
(dp6719
sbsg1748
g7
(g8
g9
NtRp6720
(dp6721
g12
g1748
sg13
I1
sg14
(dp6722
sbsg1752
g7
(g8
g9
NtRp6723
(dp6724
g12
g1752
sg13
I1
sg14
(dp6725
sbsg1756
g7
(g8
g9
NtRp6726
(dp6727
g12
g1756
sg13
I1
sg14
(dp6728
sbsg1760
g7
(g8
g9
NtRp6729
(dp6730
g12
g1760
sg13
I1
sg14
(dp6731
sbsg1764
g7
(g8
g9
NtRp6732
(dp6733
g12
g1764
sg13
I1
sg14
(dp6734
sbsg1768
g7
(g8
g9
NtRp6735
(dp6736
g12
g1768
sg13
I1
sg14
(dp6737
sbsg1772
g7
(g8
g9
NtRp6738
(dp6739
g12
g1772
sg13
I1
sg14
(dp6740
sbsg1776
g7
(g8
g9
NtRp6741
(dp6742
g12
g1776
sg13
I3
sg14
(dp6743
sbsg1780
g7
(g8
g9
NtRp6744
(dp6745
g12
g1780
sg13
I4
sg14
(dp6746
g1784
I1
ssbsg1785
g7
(g8
g9
NtRp6747
(dp6748
g12
g1785
sg13
I1
sg14
(dp6749
sbsg1789
g7
(g8
g9
NtRp6750
(dp6751
g12
g1789
sg13
I1
sg14
(dp6752
sbsg1793
g7
(g8
g9
NtRp6753
(dp6754
g12
g1793
sg13
I1
sg14
(dp6755
sbsg1797
g7
(g8
g9
NtRp6756
(dp6757
g12
g1797
sg13
I1
sg14
(dp6758
sbsg1801
g7
(g8
g9
NtRp6759
(dp6760
g12
g1801
sg13
I2
sg14
(dp6761
sbsg1805
g7
(g8
g9
NtRp6762
(dp6763
g12
g1805
sg13
I4
sg14
(dp6764
sbsg1809
g7
(g8
g9
NtRp6765
(dp6766
g12
g1809
sg13
I1
sg14
(dp6767
sbsg1813
g7
(g8
g9
NtRp6768
(dp6769
g12
g1813
sg13
I2
sg14
(dp6770
sbsg1817
g7
(g8
g9
NtRp6771
(dp6772
g12
g1817
sg13
I1
sg14
(dp6773
sbsg1821
g7
(g8
g9
NtRp6774
(dp6775
g12
g1821
sg13
I1
sg14
(dp6776
sbsg1825
g7
(g8
g9
NtRp6777
(dp6778
g12
g1825
sg13
I6
sg14
(dp6779
sbsg1829
g7
(g8
g9
NtRp6780
(dp6781
g12
g1829
sg13
I1
sg14
(dp6782
sbsg1833
g7
(g8
g9
NtRp6783
(dp6784
g12
g1833
sg13
I1
sg14
(dp6785
g1837
I1
ssbsg1838
g7
(g8
g9
NtRp6786
(dp6787
g12
g1838
sg13
I1
sg14
(dp6788
sbsg1842
g7
(g8
g9
NtRp6789
(dp6790
g12
g1842
sg13
I1
sg14
(dp6791
sbsg1846
g7
(g8
g9
NtRp6792
(dp6793
g12
g1846
sg13
I1
sg14
(dp6794
sbsg1850
g7
(g8
g9
NtRp6795
(dp6796
g12
g1850
sg13
I3
sg14
(dp6797
sbsg1854
g7
(g8
g9
NtRp6798
(dp6799
g12
g1854
sg13
I2
sg14
(dp6800
sbsg1858
g7
(g8
g9
NtRp6801
(dp6802
g12
g1858
sg13
I1
sg14
(dp6803
sbsg1862
g7
(g8
g9
NtRp6804
(dp6805
g12
g1862
sg13
I1
sg14
(dp6806
sbsg1866
g7
(g8
g9
NtRp6807
(dp6808
g12
g1866
sg13
I2
sg14
(dp6809
sbsg1870
g7
(g8
g9
NtRp6810
(dp6811
g12
g1870
sg13
I1
sg14
(dp6812
g1874
I1
ssbsg1875
g7
(g8
g9
NtRp6813
(dp6814
g12
g1875
sg13
I1
sg14
(dp6815
sbsg1879
g7
(g8
g9
NtRp6816
(dp6817
g12
g1879
sg13
I2
sg14
(dp6818
sbsg1883
g7
(g8
g9
NtRp6819
(dp6820
g12
g1883
sg13
I1
sg14
(dp6821
sbsg1887
g7
(g8
g9
NtRp6822
(dp6823
g12
g1887
sg13
I1
sg14
(dp6824
sbsg1891
g7
(g8
g9
NtRp6825
(dp6826
g12
g1891
sg13
I1
sg14
(dp6827
sbsg1895
g7
(g8
g9
NtRp6828
(dp6829
g12
g1895
sg13
I2
sg14
(dp6830
sbsg1899
g7
(g8
g9
NtRp6831
(dp6832
g12
g1899
sg13
I1
sg14
(dp6833
sbsg1903
g7
(g8
g9
NtRp6834
(dp6835
g12
g1903
sg13
I1
sg14
(dp6836
sbsg1907
g7
(g8
g9
NtRp6837
(dp6838
g12
g1907
sg13
I1
sg14
(dp6839
sbsg1911
g7
(g8
g9
NtRp6840
(dp6841
g12
g1911
sg13
I2
sg14
(dp6842
sbsg1915
g7
(g8
g9
NtRp6843
(dp6844
g12
g1915
sg13
I1
sg14
(dp6845
sbsg1919
g7
(g8
g9
NtRp6846
(dp6847
g12
g1919
sg13
I1
sg14
(dp6848
sbsg1923
g7
(g8
g9
NtRp6849
(dp6850
g12
g1923
sg13
I1
sg14
(dp6851
sbsg1927
g7
(g8
g9
NtRp6852
(dp6853
g12
g1927
sg13
I1
sg14
(dp6854
sbsg1931
g7
(g8
g9
NtRp6855
(dp6856
g12
g1931
sg13
I1
sg14
(dp6857
sbsg1935
g7
(g8
g9
NtRp6858
(dp6859
g12
g1935
sg13
I2
sg14
(dp6860
sbsg1939
g7
(g8
g9
NtRp6861
(dp6862
g12
g1939
sg13
I3
sg14
(dp6863
sbsg1943
g7
(g8
g9
NtRp6864
(dp6865
g12
g1943
sg13
I6
sg14
(dp6866
sbsg1947
g7
(g8
g9
NtRp6867
(dp6868
g12
g1947
sg13
I1
sg14
(dp6869
sbsg1951
g7
(g8
g9
NtRp6870
(dp6871
g12
g1951
sg13
I1
sg14
(dp6872
sbsg1955
g7
(g8
g9
NtRp6873
(dp6874
g12
g1955
sg13
I1
sg14
(dp6875
sbsg1959
g7
(g8
g9
NtRp6876
(dp6877
g12
g1959
sg13
I1
sg14
(dp6878
sbsg1963
g7
(g8
g9
NtRp6879
(dp6880
g12
g1963
sg13
I1
sg14
(dp6881
sbsg1967
g7
(g8
g9
NtRp6882
(dp6883
g12
g1967
sg13
I8
sg14
(dp6884
sbsg1971
g7
(g8
g9
NtRp6885
(dp6886
g12
g1971
sg13
I1
sg14
(dp6887
sbsg1975
g7
(g8
g9
NtRp6888
(dp6889
g12
g1975
sg13
I3
sg14
(dp6890
sbsg1979
g7
(g8
g9
NtRp6891
(dp6892
g12
g1979
sg13
I2
sg14
(dp6893
sbsg1983
g7
(g8
g9
NtRp6894
(dp6895
g12
g1983
sg13
I3
sg14
(dp6896
g1987
I3
ssbsg1988
g7
(g8
g9
NtRp6897
(dp6898
g12
g1988
sg13
I2
sg14
(dp6899
sbsg1992
g7
(g8
g9
NtRp6900
(dp6901
g12
g1992
sg13
I1
sg14
(dp6902
sbsg1996
g7
(g8
g9
NtRp6903
(dp6904
g12
g1996
sg13
I1
sg14
(dp6905
sbsg2000
g7
(g8
g9
NtRp6906
(dp6907
g12
g2000
sg13
I3
sg14
(dp6908
sbsg2004
g7
(g8
g9
NtRp6909
(dp6910
g12
g2004
sg13
I1
sg14
(dp6911
sbsg2008
g7
(g8
g9
NtRp6912
(dp6913
g12
g2008
sg13
I6
sg14
(dp6914
sbsg2012
g7
(g8
g9
NtRp6915
(dp6916
g12
g2012
sg13
I1
sg14
(dp6917
sbsg2016
g7
(g8
g9
NtRp6918
(dp6919
g12
g2016
sg13
I4
sg14
(dp6920
sbsg2020
g7
(g8
g9
NtRp6921
(dp6922
g12
g2020
sg13
I1
sg14
(dp6923
sbsg2024
g7
(g8
g9
NtRp6924
(dp6925
g12
g2024
sg13
I1
sg14
(dp6926
sbsg2028
g7
(g8
g9
NtRp6927
(dp6928
g12
g2028
sg13
I3
sg14
(dp6929
sbsg2032
g7
(g8
g9
NtRp6930
(dp6931
g12
g2032
sg13
I1
sg14
(dp6932
g2036
I1
ssbsg2037
g7
(g8
g9
NtRp6933
(dp6934
g12
g2037
sg13
I1
sg14
(dp6935
sbsg2041
g7
(g8
g9
NtRp6936
(dp6937
g12
g2041
sg13
I2
sg14
(dp6938
g2045
I2
ssbsg2046
g7
(g8
g9
NtRp6939
(dp6940
g12
g2046
sg13
I2
sg14
(dp6941
sbsg2050
g7
(g8
g9
NtRp6942
(dp6943
g12
g2050
sg13
I1
sg14
(dp6944
sbsg2054
g7
(g8
g9
NtRp6945
(dp6946
g12
g2054
sg13
I1
sg14
(dp6947
sbsg2058
g7
(g8
g9
NtRp6948
(dp6949
g12
g2058
sg13
I1
sg14
(dp6950
sbsg2062
g7
(g8
g9
NtRp6951
(dp6952
g12
g2062
sg13
I1
sg14
(dp6953
sbsg2066
g7
(g8
g9
NtRp6954
(dp6955
g12
g2066
sg13
I1
sg14
(dp6956
sbsg2070
g7
(g8
g9
NtRp6957
(dp6958
g12
g2070
sg13
I1
sg14
(dp6959
sbsg2074
g7
(g8
g9
NtRp6960
(dp6961
g12
g2074
sg13
I1
sg14
(dp6962
sbsg2078
g7
(g8
g9
NtRp6963
(dp6964
g12
g2078
sg13
I1
sg14
(dp6965
sbsg2082
g7
(g8
g9
NtRp6966
(dp6967
g12
g2082
sg13
I1
sg14
(dp6968
sbsg2086
g7
(g8
g9
NtRp6969
(dp6970
g12
g2086
sg13
I1
sg14
(dp6971
g2090
I1
ssbsg2091
g7
(g8
g9
NtRp6972
(dp6973
g12
g2091
sg13
I2
sg14
(dp6974
sbsg2095
g7
(g8
g9
NtRp6975
(dp6976
g12
g2095
sg13
I3
sg14
(dp6977
sbsg2099
g7
(g8
g9
NtRp6978
(dp6979
g12
g2099
sg13
I1
sg14
(dp6980
sbsg2103
g7
(g8
g9
NtRp6981
(dp6982
g12
g2103
sg13
I1
sg14
(dp6983
sbsg2107
g7
(g8
g9
NtRp6984
(dp6985
g12
g2107
sg13
I2
sg14
(dp6986
sbsg2111
g7
(g8
g9
NtRp6987
(dp6988
g12
g2111
sg13
I2
sg14
(dp6989
sbsg2115
g7
(g8
g9
NtRp6990
(dp6991
g12
g2115
sg13
I1
sg14
(dp6992
sbsg2119
g7
(g8
g9
NtRp6993
(dp6994
g12
g2119
sg13
I1
sg14
(dp6995
sbsg2123
g7
(g8
g9
NtRp6996
(dp6997
g12
g2123
sg13
I1
sg14
(dp6998
sbsg2127
g7
(g8
g9
NtRp6999
(dp7000
g12
g2127
sg13
I1
sg14
(dp7001
sbsg2131
g7
(g8
g9
NtRp7002
(dp7003
g12
g2131
sg13
I1
sg14
(dp7004
sbsg2135
g7
(g8
g9
NtRp7005
(dp7006
g12
g2135
sg13
I1
sg14
(dp7007
sbsg2139
g7
(g8
g9
NtRp7008
(dp7009
g12
g2139
sg13
I1
sg14
(dp7010
sbsg2143
g7
(g8
g9
NtRp7011
(dp7012
g12
g2143
sg13
I1
sg14
(dp7013
sbsg2147
g7
(g8
g9
NtRp7014
(dp7015
g12
g2147
sg13
I1
sg14
(dp7016
sbsg2151
g7
(g8
g9
NtRp7017
(dp7018
g12
g2151
sg13
I3
sg14
(dp7019
sbsg2155
g7
(g8
g9
NtRp7020
(dp7021
g12
g2155
sg13
I1
sg14
(dp7022
sbsg2159
g7
(g8
g9
NtRp7023
(dp7024
g12
g2159
sg13
I1
sg14
(dp7025
g2163
I1
ssbsg2164
g7
(g8
g9
NtRp7026
(dp7027
g12
g2164
sg13
I1
sg14
(dp7028
sbsg2168
g7
(g8
g9
NtRp7029
(dp7030
g12
g2168
sg13
I2
sg14
(dp7031
sbsg2172
g7
(g8
g9
NtRp7032
(dp7033
g12
g2172
sg13
I1
sg14
(dp7034
sbsg2176
g7
(g8
g9
NtRp7035
(dp7036
g12
g2176
sg13
I1
sg14
(dp7037
sbssg2180
I44
sg2181
I2
sg2182
I200
sg2183
Nsg2184
g2185
((lp7038
g2187
ag2188
ag2189
ag2190
ag2191
ag2192
ag2193
ag2194
ag2195
ag2196
ag2197
ag2198
ag2199
ag2200
ag2201
ag2202
ag2203
ag2204
ag2205
ag2206
ag2207
ag2208
ag2209
ag2210
ag2211
ag2212
ag2213
ag2214
ag2215
ag2216
ag2217
ag2218
ag2219
ag2220
ag2221
ag2222
ag2223
ag2224
ag2225
ag2226
ag2227
ag2228
ag2229
ag2230
atRp7039
sg2232
I45
sg2233
I951
sg2234
Nsg2239
g2240
(S'\x10&\x07\x02h\xb5'
tRp7040
sg2242
Nsg2243
I15
sbsI5
(istatistics.SolverStatistics
StatData
p7041
(dp7042
g4
(dp7043
g6
g7
(g8
g9
NtRp7044
(dp7045
g12
g6
sg13
I1
sg14
(dp7046
sbsg16
g7
(g8
g9
NtRp7047
(dp7048
g12
g16
sg13
I1
sg14
(dp7049
g20
I1
ssbsg21
g7
(g8
g9
NtRp7050
(dp7051
g12
g21
sg13
I1
sg14
(dp7052
sbsg25
g7
(g8
g9
NtRp7053
(dp7054
g12
g25
sg13
I2
sg14
(dp7055
sbsg29
g7
(g8
g9
NtRp7056
(dp7057
g12
g29
sg13
I4
sg14
(dp7058
sbsg33
g7
(g8
g9
NtRp7059
(dp7060
g12
g33
sg13
I1
sg14
(dp7061
sbsg37
g7
(g8
g9
NtRp7062
(dp7063
g12
g37
sg13
I1
sg14
(dp7064
sbsg41
g7
(g8
g9
NtRp7065
(dp7066
g12
g41
sg13
I1
sg14
(dp7067
sbsg45
g7
(g8
g9
NtRp7068
(dp7069
g12
g45
sg13
I1
sg14
(dp7070
sbsg49
g7
(g8
g9
NtRp7071
(dp7072
g12
g49
sg13
I1
sg14
(dp7073
sbsg53
g7
(g8
g9
NtRp7074
(dp7075
g12
g53
sg13
I1
sg14
(dp7076
sbsg57
g7
(g8
g9
NtRp7077
(dp7078
g12
g57
sg13
I1
sg14
(dp7079
g61
I1
ssbsg62
g7
(g8
g9
NtRp7080
(dp7081
g12
g62
sg13
I1
sg14
(dp7082
sbsg66
g7
(g8
g9
NtRp7083
(dp7084
g12
g66
sg13
I1
sg14
(dp7085
sbsg70
g7
(g8
g9
NtRp7086
(dp7087
g12
g70
sg13
I1
sg14
(dp7088
sbsg74
g7
(g8
g9
NtRp7089
(dp7090
g12
g74
sg13
I1
sg14
(dp7091
g78
I1
ssbsg79
g7
(g8
g9
NtRp7092
(dp7093
g12
g79
sg13
I1
sg14
(dp7094
sbsg83
g7
(g8
g9
NtRp7095
(dp7096
g12
g83
sg13
I1
sg14
(dp7097
sbsg87
g7
(g8
g9
NtRp7098
(dp7099
g12
g87
sg13
I1
sg14
(dp7100
sbsg91
g7
(g8
g9
NtRp7101
(dp7102
g12
g91
sg13
I1
sg14
(dp7103
sbsg95
g7
(g8
g9
NtRp7104
(dp7105
g12
g95
sg13
I1
sg14
(dp7106
sbsg99
g7
(g8
g9
NtRp7107
(dp7108
g12
g99
sg13
I1
sg14
(dp7109
g103
I1
ssbsg104
g7
(g8
g9
NtRp7110
(dp7111
g12
g104
sg13
I1
sg14
(dp7112
sbsg108
g7
(g8
g9
NtRp7113
(dp7114
g12
g108
sg13
I1
sg14
(dp7115
g112
I1
ssbsg113
g7
(g8
g9
NtRp7116
(dp7117
g12
g113
sg13
I14
sg14
(dp7118
sbsg117
g7
(g8
g9
NtRp7119
(dp7120
g12
g117
sg13
I1
sg14
(dp7121
sbsg121
g7
(g8
g9
NtRp7122
(dp7123
g12
g121
sg13
I2
sg14
(dp7124
sbsg125
g7
(g8
g9
NtRp7125
(dp7126
g12
g125
sg13
I1
sg14
(dp7127
sbsg129
g7
(g8
g9
NtRp7128
(dp7129
g12
g129
sg13
I2
sg14
(dp7130
sbsg133
g7
(g8
g9
NtRp7131
(dp7132
g12
g133
sg13
I2
sg14
(dp7133
sbsg137
g7
(g8
g9
NtRp7134
(dp7135
g12
g137
sg13
I1
sg14
(dp7136
sbsg141
g7
(g8
g9
NtRp7137
(dp7138
g12
g141
sg13
I1
sg14
(dp7139
sbsg145
g7
(g8
g9
NtRp7140
(dp7141
g12
g145
sg13
I1
sg14
(dp7142
sbsg149
g7
(g8
g9
NtRp7143
(dp7144
g12
g149
sg13
I2
sg14
(dp7145
sbsg153
g7
(g8
g9
NtRp7146
(dp7147
g12
g153
sg13
I3
sg14
(dp7148
sbsg157
g7
(g8
g9
NtRp7149
(dp7150
g12
g157
sg13
I1
sg14
(dp7151
sbsg161
g7
(g8
g9
NtRp7152
(dp7153
g12
g161
sg13
I1
sg14
(dp7154
sbsg165
g7
(g8
g9
NtRp7155
(dp7156
g12
g165
sg13
I2
sg14
(dp7157
sbsg169
g7
(g8
g9
NtRp7158
(dp7159
g12
g169
sg13
I1
sg14
(dp7160
sbsg173
g7
(g8
g9
NtRp7161
(dp7162
g12
g173
sg13
I14
sg14
(dp7163
sbsg177
g7
(g8
g9
NtRp7164
(dp7165
g12
g177
sg13
I1
sg14
(dp7166
g181
I1
ssbsg182
g7
(g8
g9
NtRp7167
(dp7168
g12
g182
sg13
I1
sg14
(dp7169
sbsg186
g7
(g8
g9
NtRp7170
(dp7171
g12
g186
sg13
I1
sg14
(dp7172
sbsg190
g7
(g8
g9
NtRp7173
(dp7174
g12
g190
sg13
I2
sg14
(dp7175
sbsg194
g7
(g8
g9
NtRp7176
(dp7177
g12
g194
sg13
I1
sg14
(dp7178
sbsg198
g7
(g8
g9
NtRp7179
(dp7180
g12
g198
sg13
I1
sg14
(dp7181
sbsg202
g7
(g8
g9
NtRp7182
(dp7183
g12
g202
sg13
I1
sg14
(dp7184
sbsg206
g7
(g8
g9
NtRp7185
(dp7186
g12
g206
sg13
I1
sg14
(dp7187
sbsg210
g7
(g8
g9
NtRp7188
(dp7189
g12
g210
sg13
I1
sg14
(dp7190
sbsg214
g7
(g8
g9
NtRp7191
(dp7192
g12
g214
sg13
I1
sg14
(dp7193
sbsg218
g7
(g8
g9
NtRp7194
(dp7195
g12
g218
sg13
I6
sg14
(dp7196
sbsg222
g7
(g8
g9
NtRp7197
(dp7198
g12
g222
sg13
I1
sg14
(dp7199
sbsg226
g7
(g8
g9
NtRp7200
(dp7201
g12
g226
sg13
I1
sg14
(dp7202
sbsg230
g7
(g8
g9
NtRp7203
(dp7204
g12
g230
sg13
I1
sg14
(dp7205
sbsg234
g7
(g8
g9
NtRp7206
(dp7207
g12
g234
sg13
I1
sg14
(dp7208
sbsg238
g7
(g8
g9
NtRp7209
(dp7210
g12
g238
sg13
I1
sg14
(dp7211
sbsg242
g7
(g8
g9
NtRp7212
(dp7213
g12
g242
sg13
I1
sg14
(dp7214
sbsg246
g7
(g8
g9
NtRp7215
(dp7216
g12
g246
sg13
I1
sg14
(dp7217
sbsg250
g7
(g8
g9
NtRp7218
(dp7219
g12
g250
sg13
I1
sg14
(dp7220
sbsg254
g7
(g8
g9
NtRp7221
(dp7222
g12
g254
sg13
I1
sg14
(dp7223
sbsg258
g7
(g8
g9
NtRp7224
(dp7225
g12
g258
sg13
I2
sg14
(dp7226
g262
I2
ssbsg263
g7
(g8
g9
NtRp7227
(dp7228
g12
g263
sg13
I1
sg14
(dp7229
sbsg267
g7
(g8
g9
NtRp7230
(dp7231
g12
g267
sg13
I1
sg14
(dp7232
sbsg271
g7
(g8
g9
NtRp7233
(dp7234
g12
g271
sg13
I1
sg14
(dp7235
g275
I1
ssbsg276
g7
(g8
g9
NtRp7236
(dp7237
g12
g276
sg13
I1
sg14
(dp7238
sbsg280
g7
(g8
g9
NtRp7239
(dp7240
g12
g280
sg13
I1
sg14
(dp7241
g284
I1
ssbsg285
g7
(g8
g9
NtRp7242
(dp7243
g12
g285
sg13
I3
sg14
(dp7244
sbsg289
g7
(g8
g9
NtRp7245
(dp7246
g12
g289
sg13
I1
sg14
(dp7247
sbsg293
g7
(g8
g9
NtRp7248
(dp7249
g12
g293
sg13
I1
sg14
(dp7250
sbsg297
g7
(g8
g9
NtRp7251
(dp7252
g12
g297
sg13
I1
sg14
(dp7253
sbsg301
g7
(g8
g9
NtRp7254
(dp7255
g12
g301
sg13
I1
sg14
(dp7256
sbsg305
g7
(g8
g9
NtRp7257
(dp7258
g12
g305
sg13
I2
sg14
(dp7259
g309
I2
ssbsg310
g7
(g8
g9
NtRp7260
(dp7261
g12
g310
sg13
I1
sg14
(dp7262
sbsg314
g7
(g8
g9
NtRp7263
(dp7264
g12
g314
sg13
I1
sg14
(dp7265
sbsg318
g7
(g8
g9
NtRp7266
(dp7267
g12
g318
sg13
I2
sg14
(dp7268
sbsg322
g7
(g8
g9
NtRp7269
(dp7270
g12
g322
sg13
I2
sg14
(dp7271
sbsg326
g7
(g8
g9
NtRp7272
(dp7273
g12
g326
sg13
I2
sg14
(dp7274
sbsg330
g7
(g8
g9
NtRp7275
(dp7276
g12
g330
sg13
I3
sg14
(dp7277
sbsg334
g7
(g8
g9
NtRp7278
(dp7279
g12
g334
sg13
I15
sg14
(dp7280
sbsg338
g7
(g8
g9
NtRp7281
(dp7282
g12
g338
sg13
I3
sg14
(dp7283
sbsg342
g7
(g8
g9
NtRp7284
(dp7285
g12
g342
sg13
I1
sg14
(dp7286
sbsg346
g7
(g8
g9
NtRp7287
(dp7288
g12
g346
sg13
I1
sg14
(dp7289
sbsg350
g7
(g8
g9
NtRp7290
(dp7291
g12
g350
sg13
I1
sg14
(dp7292
g354
I1
ssbsg355
g7
(g8
g9
NtRp7293
(dp7294
g12
g355
sg13
I1
sg14
(dp7295
g359
I1
ssbsg360
g7
(g8
g9
NtRp7296
(dp7297
g12
g360
sg13
I1
sg14
(dp7298
sbsg364
g7
(g8
g9
NtRp7299
(dp7300
g12
g364
sg13
I1
sg14
(dp7301
sbsg368
g7
(g8
g9
NtRp7302
(dp7303
g12
g368
sg13
I1
sg14
(dp7304
sbsg372
g7
(g8
g9
NtRp7305
(dp7306
g12
g372
sg13
I2
sg14
(dp7307
sbsg376
g7
(g8
g9
NtRp7308
(dp7309
g12
g376
sg13
I2
sg14
(dp7310
g380
I2
ssbsg381
g7
(g8
g9
NtRp7311
(dp7312
g12
g381
sg13
I4
sg14
(dp7313
sbsg385
g7
(g8
g9
NtRp7314
(dp7315
g12
g385
sg13
I3
sg14
(dp7316
sbsg389
g7
(g8
g9
NtRp7317
(dp7318
g12
g389
sg13
I2
sg14
(dp7319
sbsg393
g7
(g8
g9
NtRp7320
(dp7321
g12
g393
sg13
I1
sg14
(dp7322
sbsg397
g7
(g8
g9
NtRp7323
(dp7324
g12
g397
sg13
I1
sg14
(dp7325
sbsg401
g7
(g8
g9
NtRp7326
(dp7327
g12
g401
sg13
I1
sg14
(dp7328
sbsg405
g7
(g8
g9
NtRp7329
(dp7330
g12
g405
sg13
I1
sg14
(dp7331
sbsg409
g7
(g8
g9
NtRp7332
(dp7333
g12
g409
sg13
I1
sg14
(dp7334
sbsg413
g7
(g8
g9
NtRp7335
(dp7336
g12
g413
sg13
I1
sg14
(dp7337
g417
I1
ssbsg418
g7
(g8
g9
NtRp7338
(dp7339
g12
g418
sg13
I1
sg14
(dp7340
sbsg422
g7
(g8
g9
NtRp7341
(dp7342
g12
g422
sg13
I1
sg14
(dp7343
sbsg426
g7
(g8
g9
NtRp7344
(dp7345
g12
g426
sg13
I1
sg14
(dp7346
sbsg430
g7
(g8
g9
NtRp7347
(dp7348
g12
g430
sg13
I1
sg14
(dp7349
g434
I1
ssbsg435
g7
(g8
g9
NtRp7350
(dp7351
g12
g435
sg13
I1
sg14
(dp7352
sbsg439
g7
(g8
g9
NtRp7353
(dp7354
g12
g439
sg13
I1
sg14
(dp7355
sbsg443
g7
(g8
g9
NtRp7356
(dp7357
g12
g443
sg13
I1
sg14
(dp7358
sbsg447
g7
(g8
g9
NtRp7359
(dp7360
g12
g447
sg13
I1
sg14
(dp7361
sbsg451
g7
(g8
g9
NtRp7362
(dp7363
g12
g451
sg13
I1
sg14
(dp7364
sbsg455
g7
(g8
g9
NtRp7365
(dp7366
g12
g455
sg13
I2
sg14
(dp7367
sbsg459
g7
(g8
g9
NtRp7368
(dp7369
g12
g459
sg13
I15
sg14
(dp7370
sbsg463
g7
(g8
g9
NtRp7371
(dp7372
g12
g463
sg13
I3
sg14
(dp7373
sbsg467
g7
(g8
g9
NtRp7374
(dp7375
g12
g467
sg13
I1
sg14
(dp7376
sbsg471
g7
(g8
g9
NtRp7377
(dp7378
g12
g471
sg13
I1
sg14
(dp7379
g475
I1
ssbsg476
g7
(g8
g9
NtRp7380
(dp7381
g12
g476
sg13
I1
sg14
(dp7382
sbsg480
g7
(g8
g9
NtRp7383
(dp7384
g12
g480
sg13
I1
sg14
(dp7385
g484
I1
ssbsg485
g7
(g8
g9
NtRp7386
(dp7387
g12
g485
sg13
I1
sg14
(dp7388
g489
I1
ssbsg490
g7
(g8
g9
NtRp7389
(dp7390
g12
g490
sg13
I1
sg14
(dp7391
sbsg494
g7
(g8
g9
NtRp7392
(dp7393
g12
g494
sg13
I1
sg14
(dp7394
sbsg498
g7
(g8
g9
NtRp7395
(dp7396
g12
g498
sg13
I1
sg14
(dp7397
sbsg502
g7
(g8
g9
NtRp7398
(dp7399
g12
g502
sg13
I1
sg14
(dp7400
sbsg506
g7
(g8
g9
NtRp7401
(dp7402
g12
g506
sg13
I1
sg14
(dp7403
sbsg510
g7
(g8
g9
NtRp7404
(dp7405
g12
g510
sg13
I1
sg14
(dp7406
sbsg514
g7
(g8
g9
NtRp7407
(dp7408
g12
g514
sg13
I1
sg14
(dp7409
sbsg518
g7
(g8
g9
NtRp7410
(dp7411
g12
g518
sg13
I1
sg14
(dp7412
sbsg522
g7
(g8
g9
NtRp7413
(dp7414
g12
g522
sg13
I1
sg14
(dp7415
sbsg526
g7
(g8
g9
NtRp7416
(dp7417
g12
g526
sg13
I1
sg14
(dp7418
sbsg530
g7
(g8
g9
NtRp7419
(dp7420
g12
g530
sg13
I1
sg14
(dp7421
g534
I1
ssbsg535
g7
(g8
g9
NtRp7422
(dp7423
g12
g535
sg13
I1
sg14
(dp7424
sbsg539
g7
(g8
g9
NtRp7425
(dp7426
g12
g539
sg13
I5
sg14
(dp7427
sbsg543
g7
(g8
g9
NtRp7428
(dp7429
g12
g543
sg13
I2
sg14
(dp7430
sbsg547
g7
(g8
g9
NtRp7431
(dp7432
g12
g547
sg13
I1
sg14
(dp7433
sbsg551
g7
(g8
g9
NtRp7434
(dp7435
g12
g551
sg13
I3
sg14
(dp7436
sbsg555
g7
(g8
g9
NtRp7437
(dp7438
g12
g555
sg13
I3
sg14
(dp7439
g559
I3
ssbsg560
g7
(g8
g9
NtRp7440
(dp7441
g12
g560
sg13
I1
sg14
(dp7442
sbsg564
g7
(g8
g9
NtRp7443
(dp7444
g12
g564
sg13
I15
sg14
(dp7445
sbsg568
g7
(g8
g9
NtRp7446
(dp7447
g12
g568
sg13
I1
sg14
(dp7448
sbsg572
g7
(g8
g9
NtRp7449
(dp7450
g12
g572
sg13
I1
sg14
(dp7451
sbsg576
g7
(g8
g9
NtRp7452
(dp7453
g12
g576
sg13
I1
sg14
(dp7454
sbsg580
g7
(g8
g9
NtRp7455
(dp7456
g12
g580
sg13
I6
sg14
(dp7457
g584
I6
ssbsg585
g7
(g8
g9
NtRp7458
(dp7459
g12
g585
sg13
I1
sg14
(dp7460
sbsg589
g7
(g8
g9
NtRp7461
(dp7462
g12
g589
sg13
I3
sg14
(dp7463
sbsg593
g7
(g8
g9
NtRp7464
(dp7465
g12
g593
sg13
I1
sg14
(dp7466
sbsg597
g7
(g8
g9
NtRp7467
(dp7468
g12
g597
sg13
I1
sg14
(dp7469
sbsg601
g7
(g8
g9
NtRp7470
(dp7471
g12
g601
sg13
I1
sg14
(dp7472
sbsg605
g7
(g8
g9
NtRp7473
(dp7474
g12
g605
sg13
I6
sg14
(dp7475
sbsg609
g7
(g8
g9
NtRp7476
(dp7477
g12
g609
sg13
I1
sg14
(dp7478
sbsg613
g7
(g8
g9
NtRp7479
(dp7480
g12
g613
sg13
I1
sg14
(dp7481
g617
I1
ssbsg618
g7
(g8
g9
NtRp7482
(dp7483
g12
g618
sg13
I1
sg14
(dp7484
sbsg622
g7
(g8
g9
NtRp7485
(dp7486
g12
g622
sg13
I5
sg14
(dp7487
sbsg626
g7
(g8
g9
NtRp7488
(dp7489
g12
g626
sg13
I1
sg14
(dp7490
sbsg630
g7
(g8
g9
NtRp7491
(dp7492
g12
g630
sg13
I1
sg14
(dp7493
sbsg634
g7
(g8
g9
NtRp7494
(dp7495
g12
g634
sg13
I8
sg14
(dp7496
sbsg638
g7
(g8
g9
NtRp7497
(dp7498
g12
g638
sg13
I1
sg14
(dp7499
sbsg642
g7
(g8
g9
NtRp7500
(dp7501
g12
g642
sg13
I1
sg14
(dp7502
sbsg646
g7
(g8
g9
NtRp7503
(dp7504
g12
g646
sg13
I1
sg14
(dp7505
sbsg650
g7
(g8
g9
NtRp7506
(dp7507
g12
g650
sg13
I1
sg14
(dp7508
g654
I2
ssbsg655
g7
(g8
g9
NtRp7509
(dp7510
g12
g655
sg13
I1
sg14
(dp7511
sbsg659
g7
(g8
g9
NtRp7512
(dp7513
g12
g659
sg13
I1
sg14
(dp7514
sbsg663
g7
(g8
g9
NtRp7515
(dp7516
g12
g663
sg13
I1
sg14
(dp7517
sbsg667
g7
(g8
g9
NtRp7518
(dp7519
g12
g667
sg13
I1
sg14
(dp7520
sbsg671
g7
(g8
g9
NtRp7521
(dp7522
g12
g671
sg13
I4
sg14
(dp7523
sbsg675
g7
(g8
g9
NtRp7524
(dp7525
g12
g675
sg13
I1
sg14
(dp7526
sbsg679
g7
(g8
g9
NtRp7527
(dp7528
g12
g679
sg13
I1
sg14
(dp7529
sbsg683
g7
(g8
g9
NtRp7530
(dp7531
g12
g683
sg13
I3
sg14
(dp7532
sbsg687
g7
(g8
g9
NtRp7533
(dp7534
g12
g687
sg13
I1
sg14
(dp7535
sbsg691
g7
(g8
g9
NtRp7536
(dp7537
g12
g691
sg13
I2
sg14
(dp7538
sbsg695
g7
(g8
g9
NtRp7539
(dp7540
g12
g695
sg13
I1
sg14
(dp7541
sbsg699
g7
(g8
g9
NtRp7542
(dp7543
g12
g699
sg13
I1
sg14
(dp7544
sbsg703
g7
(g8
g9
NtRp7545
(dp7546
g12
g703
sg13
I3
sg14
(dp7547
g707
I2
ssbsg708
g7
(g8
g9
NtRp7548
(dp7549
g12
g708
sg13
I1
sg14
(dp7550
sbsg712
g7
(g8
g9
NtRp7551
(dp7552
g12
g712
sg13
I1
sg14
(dp7553
sbsg716
g7
(g8
g9
NtRp7554
(dp7555
g12
g716
sg13
I2
sg14
(dp7556
sbsg720
g7
(g8
g9
NtRp7557
(dp7558
g12
g720
sg13
I1
sg14
(dp7559
sbsg724
g7
(g8
g9
NtRp7560
(dp7561
g12
g724
sg13
I1
sg14
(dp7562
sbsg728
g7
(g8
g9
NtRp7563
(dp7564
g12
g728
sg13
I1
sg14
(dp7565
sbsg732
g7
(g8
g9
NtRp7566
(dp7567
g12
g732
sg13
I1
sg14
(dp7568
sbsg736
g7
(g8
g9
NtRp7569
(dp7570
g12
g736
sg13
I1
sg14
(dp7571
sbsg740
g7
(g8
g9
NtRp7572
(dp7573
g12
g740
sg13
I4
sg14
(dp7574
sbsg744
g7
(g8
g9
NtRp7575
(dp7576
g12
g744
sg13
I1
sg14
(dp7577
sbsg748
g7
(g8
g9
NtRp7578
(dp7579
g12
g748
sg13
I3
sg14
(dp7580
sbsg752
g7
(g8
g9
NtRp7581
(dp7582
g12
g752
sg13
I3
sg14
(dp7583
sbsg756
g7
(g8
g9
NtRp7584
(dp7585
g12
g756
sg13
I12
sg14
(dp7586
sbsg760
g7
(g8
g9
NtRp7587
(dp7588
g12
g760
sg13
I1
sg14
(dp7589
sbsg764
g7
(g8
g9
NtRp7590
(dp7591
g12
g764
sg13
I1
sg14
(dp7592
sbsg768
g7
(g8
g9
NtRp7593
(dp7594
g12
g768
sg13
I3
sg14
(dp7595
g772
I3
ssbsg773
g7
(g8
g9
NtRp7596
(dp7597
g12
g773
sg13
I2
sg14
(dp7598
sbsg777
g7
(g8
g9
NtRp7599
(dp7600
g12
g777
sg13
I2
sg14
(dp7601
sbsg781
g7
(g8
g9
NtRp7602
(dp7603
g12
g781
sg13
I1
sg14
(dp7604
sbsg785
g7
(g8
g9
NtRp7605
(dp7606
g12
g785
sg13
I1
sg14
(dp7607
sbsg789
g7
(g8
g9
NtRp7608
(dp7609
g12
g789
sg13
I2
sg14
(dp7610
sbsg793
g7
(g8
g9
NtRp7611
(dp7612
g12
g793
sg13
I1
sg14
(dp7613
sbsg797
g7
(g8
g9
NtRp7614
(dp7615
g12
g797
sg13
I1
sg14
(dp7616
sbsg801
g7
(g8
g9
NtRp7617
(dp7618
g12
g801
sg13
I1
sg14
(dp7619
sbsg805
g7
(g8
g9
NtRp7620
(dp7621
g12
g805
sg13
I1
sg14
(dp7622
sbsg809
g7
(g8
g9
NtRp7623
(dp7624
g12
g809
sg13
I1
sg14
(dp7625
sbsg813
g7
(g8
g9
NtRp7626
(dp7627
g12
g813
sg13
I1
sg14
(dp7628
sbsg817
g7
(g8
g9
NtRp7629
(dp7630
g12
g817
sg13
I2
sg14
(dp7631
sbsg821
g7
(g8
g9
NtRp7632
(dp7633
g12
g821
sg13
I11
sg14
(dp7634
sbsg825
g7
(g8
g9
NtRp7635
(dp7636
g12
g825
sg13
I1
sg14
(dp7637
sbsg829
g7
(g8
g9
NtRp7638
(dp7639
g12
g829
sg13
I1
sg14
(dp7640
sbsg833
g7
(g8
g9
NtRp7641
(dp7642
g12
g833
sg13
I1
sg14
(dp7643
sbsg837
g7
(g8
g9
NtRp7644
(dp7645
g12
g837
sg13
I1
sg14
(dp7646
sbsg841
g7
(g8
g9
NtRp7647
(dp7648
g12
g841
sg13
I1
sg14
(dp7649
sbsg845
g7
(g8
g9
NtRp7650
(dp7651
g12
g845
sg13
I14
sg14
(dp7652
sbsg849
g7
(g8
g9
NtRp7653
(dp7654
g12
g849
sg13
I1
sg14
(dp7655
sbsg853
g7
(g8
g9
NtRp7656
(dp7657
g12
g853
sg13
I1
sg14
(dp7658
sbsg857
g7
(g8
g9
NtRp7659
(dp7660
g12
g857
sg13
I1
sg14
(dp7661
sbsg861
g7
(g8
g9
NtRp7662
(dp7663
g12
g861
sg13
I1
sg14
(dp7664
sbsg865
g7
(g8
g9
NtRp7665
(dp7666
g12
g865
sg13
I1
sg14
(dp7667
sbsg869
g7
(g8
g9
NtRp7668
(dp7669
g12
g869
sg13
I1
sg14
(dp7670
sbsg873
g7
(g8
g9
NtRp7671
(dp7672
g12
g873
sg13
I1
sg14
(dp7673
sbsg877
g7
(g8
g9
NtRp7674
(dp7675
g12
g877
sg13
I1
sg14
(dp7676
sbsg881
g7
(g8
g9
NtRp7677
(dp7678
g12
g881
sg13
I3
sg14
(dp7679
sbsg885
g7
(g8
g9
NtRp7680
(dp7681
g12
g885
sg13
I1
sg14
(dp7682
sbsg889
g7
(g8
g9
NtRp7683
(dp7684
g12
g889
sg13
I1
sg14
(dp7685
sbsg893
g7
(g8
g9
NtRp7686
(dp7687
g12
g893
sg13
I1
sg14
(dp7688
sbsg897
g7
(g8
g9
NtRp7689
(dp7690
g12
g897
sg13
I2
sg14
(dp7691
sbsg901
g7
(g8
g9
NtRp7692
(dp7693
g12
g901
sg13
I1
sg14
(dp7694
sbsg905
g7
(g8
g9
NtRp7695
(dp7696
g12
g905
sg13
I1
sg14
(dp7697
sbsg909
g7
(g8
g9
NtRp7698
(dp7699
g12
g909
sg13
I1
sg14
(dp7700
sbsg913
g7
(g8
g9
NtRp7701
(dp7702
g12
g913
sg13
I1
sg14
(dp7703
sbsg917
g7
(g8
g9
NtRp7704
(dp7705
g12
g917
sg13
I1
sg14
(dp7706
sbsg921
g7
(g8
g9
NtRp7707
(dp7708
g12
g921
sg13
I6
sg14
(dp7709
sbsg925
g7
(g8
g9
NtRp7710
(dp7711
g12
g925
sg13
I1
sg14
(dp7712
sbsg929
g7
(g8
g9
NtRp7713
(dp7714
g12
g929
sg13
I1
sg14
(dp7715
sbsg933
g7
(g8
g9
NtRp7716
(dp7717
g12
g933
sg13
I1
sg14
(dp7718
sbsg937
g7
(g8
g9
NtRp7719
(dp7720
g12
g937
sg13
I1
sg14
(dp7721
sbsg941
g7
(g8
g9
NtRp7722
(dp7723
g12
g941
sg13
I1
sg14
(dp7724
sbsg945
g7
(g8
g9
NtRp7725
(dp7726
g12
g945
sg13
I4
sg14
(dp7727
g949
I4
ssbsg950
g7
(g8
g9
NtRp7728
(dp7729
g12
g950
sg13
I1
sg14
(dp7730
g954
I1
ssbsg955
g7
(g8
g9
NtRp7731
(dp7732
g12
g955
sg13
I2
sg14
(dp7733
sbsg959
g7
(g8
g9
NtRp7734
(dp7735
g12
g959
sg13
I2
sg14
(dp7736
sbsg963
g7
(g8
g9
NtRp7737
(dp7738
g12
g963
sg13
I1
sg14
(dp7739
sbsg967
g7
(g8
g9
NtRp7740
(dp7741
g12
g967
sg13
I1
sg14
(dp7742
sbsg971
g7
(g8
g9
NtRp7743
(dp7744
g12
g971
sg13
I1
sg14
(dp7745
sbsg975
g7
(g8
g9
NtRp7746
(dp7747
g12
g975
sg13
I1
sg14
(dp7748
sbsg979
g7
(g8
g9
NtRp7749
(dp7750
g12
g979
sg13
I1
sg14
(dp7751
sbsg983
g7
(g8
g9
NtRp7752
(dp7753
g12
g983
sg13
I1
sg14
(dp7754
sbsg987
g7
(g8
g9
NtRp7755
(dp7756
g12
g987
sg13
I1
sg14
(dp7757
sbsg991
g7
(g8
g9
NtRp7758
(dp7759
g12
g991
sg13
I1
sg14
(dp7760
sbsg995
g7
(g8
g9
NtRp7761
(dp7762
g12
g995
sg13
I1
sg14
(dp7763
sbsg999
g7
(g8
g9
NtRp7764
(dp7765
g12
g999
sg13
I1
sg14
(dp7766
sbsg1003
g7
(g8
g9
NtRp7767
(dp7768
g12
g1003
sg13
I1
sg14
(dp7769
sbsg1007
g7
(g8
g9
NtRp7770
(dp7771
g12
g1007
sg13
I5
sg14
(dp7772
sbsg1011
g7
(g8
g9
NtRp7773
(dp7774
g12
g1011
sg13
I1
sg14
(dp7775
sbsg1015
g7
(g8
g9
NtRp7776
(dp7777
g12
g1015
sg13
I1
sg14
(dp7778
sbsg1019
g7
(g8
g9
NtRp7779
(dp7780
g12
g1019
sg13
I2
sg14
(dp7781
sbsg1023
g7
(g8
g9
NtRp7782
(dp7783
g12
g1023
sg13
I3
sg14
(dp7784
sbsg1027
g7
(g8
g9
NtRp7785
(dp7786
g12
g1027
sg13
I1
sg14
(dp7787
sbsg1031
g7
(g8
g9
NtRp7788
(dp7789
g12
g1031
sg13
I2
sg14
(dp7790
sbsg1035
g7
(g8
g9
NtRp7791
(dp7792
g12
g1035
sg13
I1
sg14
(dp7793
sbsg1039
g7
(g8
g9
NtRp7794
(dp7795
g12
g1039
sg13
I1
sg14
(dp7796
sbsg1043
g7
(g8
g9
NtRp7797
(dp7798
g12
g1043
sg13
I3
sg14
(dp7799
sbsg1047
g7
(g8
g9
NtRp7800
(dp7801
g12
g1047
sg13
I1
sg14
(dp7802
sbsg1051
g7
(g8
g9
NtRp7803
(dp7804
g12
g1051
sg13
I1
sg14
(dp7805
sbsg1055
g7
(g8
g9
NtRp7806
(dp7807
g12
g1055
sg13
I1
sg14
(dp7808
sbsg1059
g7
(g8
g9
NtRp7809
(dp7810
g12
g1059
sg13
I1
sg14
(dp7811
sbsg1063
g7
(g8
g9
NtRp7812
(dp7813
g12
g1063
sg13
I1
sg14
(dp7814
sbsg1067
g7
(g8
g9
NtRp7815
(dp7816
g12
g1067
sg13
I1
sg14
(dp7817
sbsg1071
g7
(g8
g9
NtRp7818
(dp7819
g12
g1071
sg13
I17
sg14
(dp7820
sbsg1075
g7
(g8
g9
NtRp7821
(dp7822
g12
g1075
sg13
I1
sg14
(dp7823
sbsg1079
g7
(g8
g9
NtRp7824
(dp7825
g12
g1079
sg13
I1
sg14
(dp7826
g1083
I1
ssbsg1084
g7
(g8
g9
NtRp7827
(dp7828
g12
g1084
sg13
I2
sg14
(dp7829
sbsg1088
g7
(g8
g9
NtRp7830
(dp7831
g12
g1088
sg13
I4
sg14
(dp7832
sbsg1092
g7
(g8
g9
NtRp7833
(dp7834
g12
g1092
sg13
I1
sg14
(dp7835
sbsg1096
g7
(g8
g9
NtRp7836
(dp7837
g12
g1096
sg13
I2
sg14
(dp7838
sbsg1100
g7
(g8
g9
NtRp7839
(dp7840
g12
g1100
sg13
I1
sg14
(dp7841
sbsg1104
g7
(g8
g9
NtRp7842
(dp7843
g12
g1104
sg13
I1
sg14
(dp7844
sbsg1108
g7
(g8
g9
NtRp7845
(dp7846
g12
g1108
sg13
I1
sg14
(dp7847
sbsg1112
g7
(g8
g9
NtRp7848
(dp7849
g12
g1112
sg13
I1
sg14
(dp7850
sbsg1116
g7
(g8
g9
NtRp7851
(dp7852
g12
g1116
sg13
I1
sg14
(dp7853
sbsg1120
g7
(g8
g9
NtRp7854
(dp7855
g12
g1120
sg13
I1
sg14
(dp7856
sbsg1124
g7
(g8
g9
NtRp7857
(dp7858
g12
g1124
sg13
I1
sg14
(dp7859
sbsg1128
g7
(g8
g9
NtRp7860
(dp7861
g12
g1128
sg13
I1
sg14
(dp7862
sbsg1132
g7
(g8
g9
NtRp7863
(dp7864
g12
g1132
sg13
I1
sg14
(dp7865
sbsg1136
g7
(g8
g9
NtRp7866
(dp7867
g12
g1136
sg13
I2
sg14
(dp7868
sbsg1140
g7
(g8
g9
NtRp7869
(dp7870
g12
g1140
sg13
I1
sg14
(dp7871
g1144
I1
ssbsg1145
g7
(g8
g9
NtRp7872
(dp7873
g12
g1145
sg13
I1
sg14
(dp7874
g1149
I1
ssbsg1150
g7
(g8
g9
NtRp7875
(dp7876
g12
g1150
sg13
I1
sg14
(dp7877
sbsg1154
g7
(g8
g9
NtRp7878
(dp7879
g12
g1154
sg13
I1
sg14
(dp7880
sbsg1158
g7
(g8
g9
NtRp7881
(dp7882
g12
g1158
sg13
I1
sg14
(dp7883
sbsg1162
g7
(g8
g9
NtRp7884
(dp7885
g12
g1162
sg13
I7
sg14
(dp7886
sbsg1166
g7
(g8
g9
NtRp7887
(dp7888
g12
g1166
sg13
I1
sg14
(dp7889
sbsg1170
g7
(g8
g9
NtRp7890
(dp7891
g12
g1170
sg13
I1
sg14
(dp7892
g1174
I1
ssbsg1175
g7
(g8
g9
NtRp7893
(dp7894
g12
g1175
sg13
I1
sg14
(dp7895
sbsg1179
g7
(g8
g9
NtRp7896
(dp7897
g12
g1179
sg13
I1
sg14
(dp7898
g1183
I1
ssbsg1184
g7
(g8
g9
NtRp7899
(dp7900
g12
g1184
sg13
I1
sg14
(dp7901
sbsg1188
g7
(g8
g9
NtRp7902
(dp7903
g12
g1188
sg13
I1
sg14
(dp7904
sbsg1192
g7
(g8
g9
NtRp7905
(dp7906
g12
g1192
sg13
I1
sg14
(dp7907
sbsg1196
g7
(g8
g9
NtRp7908
(dp7909
g12
g1196
sg13
I1
sg14
(dp7910
sbsg1200
g7
(g8
g9
NtRp7911
(dp7912
g12
g1200
sg13
I1
sg14
(dp7913
sbsg1204
g7
(g8
g9
NtRp7914
(dp7915
g12
g1204
sg13
I1
sg14
(dp7916
sbsg1208
g7
(g8
g9
NtRp7917
(dp7918
g12
g1208
sg13
I1
sg14
(dp7919
sbsg1212
g7
(g8
g9
NtRp7920
(dp7921
g12
g1212
sg13
I1
sg14
(dp7922
sbsg1216
g7
(g8
g9
NtRp7923
(dp7924
g12
g1216
sg13
I2
sg14
(dp7925
sbsg1220
g7
(g8
g9
NtRp7926
(dp7927
g12
g1220
sg13
I2
sg14
(dp7928
sbsg1224
g7
(g8
g9
NtRp7929
(dp7930
g12
g1224
sg13
I1
sg14
(dp7931
sbsg1228
g7
(g8
g9
NtRp7932
(dp7933
g12
g1228
sg13
I1
sg14
(dp7934
sbsg1232
g7
(g8
g9
NtRp7935
(dp7936
g12
g1232
sg13
I1
sg14
(dp7937
sbsg1236
g7
(g8
g9
NtRp7938
(dp7939
g12
g1236
sg13
I2
sg14
(dp7940
sbsg1240
g7
(g8
g9
NtRp7941
(dp7942
g12
g1240
sg13
I1
sg14
(dp7943
sbsg1244
g7
(g8
g9
NtRp7944
(dp7945
g12
g1244
sg13
I1
sg14
(dp7946
sbsg1248
g7
(g8
g9
NtRp7947
(dp7948
g12
g1248
sg13
I1
sg14
(dp7949
sbsg1252
g7
(g8
g9
NtRp7950
(dp7951
g12
g1252
sg13
I4
sg14
(dp7952
sbsg1256
g7
(g8
g9
NtRp7953
(dp7954
g12
g1256
sg13
I1
sg14
(dp7955
sbsg1260
g7
(g8
g9
NtRp7956
(dp7957
g12
g1260
sg13
I1
sg14
(dp7958
sbsg1264
g7
(g8
g9
NtRp7959
(dp7960
g12
g1264
sg13
I1
sg14
(dp7961
sbsg1268
g7
(g8
g9
NtRp7962
(dp7963
g12
g1268
sg13
I1
sg14
(dp7964
sbsg1272
g7
(g8
g9
NtRp7965
(dp7966
g12
g1272
sg13
I1
sg14
(dp7967
sbsg1276
g7
(g8
g9
NtRp7968
(dp7969
g12
g1276
sg13
I1
sg14
(dp7970
sbsg1280
g7
(g8
g9
NtRp7971
(dp7972
g12
g1280
sg13
I1
sg14
(dp7973
sbsg1284
g7
(g8
g9
NtRp7974
(dp7975
g12
g1284
sg13
I1
sg14
(dp7976
sbsg1288
g7
(g8
g9
NtRp7977
(dp7978
g12
g1288
sg13
I1
sg14
(dp7979
sbsg1292
g7
(g8
g9
NtRp7980
(dp7981
g12
g1292
sg13
I1
sg14
(dp7982
sbsg1296
g7
(g8
g9
NtRp7983
(dp7984
g12
g1296
sg13
I1
sg14
(dp7985
sbsg1300
g7
(g8
g9
NtRp7986
(dp7987
g12
g1300
sg13
I1
sg14
(dp7988
sbsg1304
g7
(g8
g9
NtRp7989
(dp7990
g12
g1304
sg13
I1
sg14
(dp7991
sbsg1308
g7
(g8
g9
NtRp7992
(dp7993
g12
g1308
sg13
I2
sg14
(dp7994
sbsg1312
g7
(g8
g9
NtRp7995
(dp7996
g12
g1312
sg13
I1
sg14
(dp7997
sbsg1316
g7
(g8
g9
NtRp7998
(dp7999
g12
g1316
sg13
I1
sg14
(dp8000
sbsg1320
g7
(g8
g9
NtRp8001
(dp8002
g12
g1320
sg13
I1
sg14
(dp8003
sbsg1324
g7
(g8
g9
NtRp8004
(dp8005
g12
g1324
sg13
I1
sg14
(dp8006
sbsg1328
g7
(g8
g9
NtRp8007
(dp8008
g12
g1328
sg13
I1
sg14
(dp8009
sbsg1332
g7
(g8
g9
NtRp8010
(dp8011
g12
g1332
sg13
I1
sg14
(dp8012
sbsg1336
g7
(g8
g9
NtRp8013
(dp8014
g12
g1336
sg13
I4
sg14
(dp8015
sbsg1340
g7
(g8
g9
NtRp8016
(dp8017
g12
g1340
sg13
I1
sg14
(dp8018
sbsg1344
g7
(g8
g9
NtRp8019
(dp8020
g12
g1344
sg13
I1
sg14
(dp8021
sbsg1348
g7
(g8
g9
NtRp8022
(dp8023
g12
g1348
sg13
I1
sg14
(dp8024
sbsg1352
g7
(g8
g9
NtRp8025
(dp8026
g12
g1352
sg13
I1
sg14
(dp8027
sbsg1356
g7
(g8
g9
NtRp8028
(dp8029
g12
g1356
sg13
I1
sg14
(dp8030
sbsg1360
g7
(g8
g9
NtRp8031
(dp8032
g12
g1360
sg13
I1
sg14
(dp8033
sbsg1364
g7
(g8
g9
NtRp8034
(dp8035
g12
g1364
sg13
I1
sg14
(dp8036
sbsg1368
g7
(g8
g9
NtRp8037
(dp8038
g12
g1368
sg13
I2
sg14
(dp8039
sbsg1372
g7
(g8
g9
NtRp8040
(dp8041
g12
g1372
sg13
I2
sg14
(dp8042
sbsg1376
g7
(g8
g9
NtRp8043
(dp8044
g12
g1376
sg13
I1
sg14
(dp8045
sbsg1380
g7
(g8
g9
NtRp8046
(dp8047
g12
g1380
sg13
I19
sg14
(dp8048
sbsg1384
g7
(g8
g9
NtRp8049
(dp8050
g12
g1384
sg13
I1
sg14
(dp8051
sbsg1388
g7
(g8
g9
NtRp8052
(dp8053
g12
g1388
sg13
I1
sg14
(dp8054
sbsg1392
g7
(g8
g9
NtRp8055
(dp8056
g12
g1392
sg13
I1
sg14
(dp8057
sbsg1396
g7
(g8
g9
NtRp8058
(dp8059
g12
g1396
sg13
I3
sg14
(dp8060
sbsg1400
g7
(g8
g9
NtRp8061
(dp8062
g12
g1400
sg13
I1
sg14
(dp8063
sbsg1404
g7
(g8
g9
NtRp8064
(dp8065
g12
g1404
sg13
I1
sg14
(dp8066
sbsg1408
g7
(g8
g9
NtRp8067
(dp8068
g12
g1408
sg13
I3
sg14
(dp8069
sbsg1412
g7
(g8
g9
NtRp8070
(dp8071
g12
g1412
sg13
I1
sg14
(dp8072
sbsg1416
g7
(g8
g9
NtRp8073
(dp8074
g12
g1416
sg13
I16
sg14
(dp8075
sbsg1420
g7
(g8
g9
NtRp8076
(dp8077
g12
g1420
sg13
I1
sg14
(dp8078
g1424
I1
ssbsg1425
g7
(g8
g9
NtRp8079
(dp8080
g12
g1425
sg13
I1
sg14
(dp8081
sbsg1429
g7
(g8
g9
NtRp8082
(dp8083
g12
g1429
sg13
I3
sg14
(dp8084
sbsg1433
g7
(g8
g9
NtRp8085
(dp8086
g12
g1433
sg13
I1
sg14
(dp8087
sbsg1437
g7
(g8
g9
NtRp8088
(dp8089
g12
g1437
sg13
I3
sg14
(dp8090
sbsg1441
g7
(g8
g9
NtRp8091
(dp8092
g12
g1441
sg13
I1
sg14
(dp8093
sbsg1445
g7
(g8
g9
NtRp8094
(dp8095
g12
g1445
sg13
I1
sg14
(dp8096
sbsg1449
g7
(g8
g9
NtRp8097
(dp8098
g12
g1449
sg13
I1
sg14
(dp8099
sbsg1453
g7
(g8
g9
NtRp8100
(dp8101
g12
g1453
sg13
I1
sg14
(dp8102
sbsg1457
g7
(g8
g9
NtRp8103
(dp8104
g12
g1457
sg13
I1
sg14
(dp8105
sbsg1461
g7
(g8
g9
NtRp8106
(dp8107
g12
g1461
sg13
I1
sg14
(dp8108
sbsg1465
g7
(g8
g9
NtRp8109
(dp8110
g12
g1465
sg13
I1
sg14
(dp8111
sbsg1469
g7
(g8
g9
NtRp8112
(dp8113
g12
g1469
sg13
I1
sg14
(dp8114
sbsg1473
g7
(g8
g9
NtRp8115
(dp8116
g12
g1473
sg13
I1
sg14
(dp8117
sbsg1477
g7
(g8
g9
NtRp8118
(dp8119
g12
g1477
sg13
I1
sg14
(dp8120
g1481
I1
ssbsg1482
g7
(g8
g9
NtRp8121
(dp8122
g12
g1482
sg13
I1
sg14
(dp8123
sbsg1486
g7
(g8
g9
NtRp8124
(dp8125
g12
g1486
sg13
I14
sg14
(dp8126
sbsg1490
g7
(g8
g9
NtRp8127
(dp8128
g12
g1490
sg13
I4
sg14
(dp8129
sbsg1494
g7
(g8
g9
NtRp8130
(dp8131
g12
g1494
sg13
I1
sg14
(dp8132
sbsg1498
g7
(g8
g9
NtRp8133
(dp8134
g12
g1498
sg13
I1
sg14
(dp8135
sbsg1502
g7
(g8
g9
NtRp8136
(dp8137
g12
g1502
sg13
I1
sg14
(dp8138
sbsg1506
g7
(g8
g9
NtRp8139
(dp8140
g12
g1506
sg13
I1
sg14
(dp8141
sbsg1510
g7
(g8
g9
NtRp8142
(dp8143
g12
g1510
sg13
I1
sg14
(dp8144
sbsg1514
g7
(g8
g9
NtRp8145
(dp8146
g12
g1514
sg13
I1
sg14
(dp8147
sbsg1518
g7
(g8
g9
NtRp8148
(dp8149
g12
g1518
sg13
I1
sg14
(dp8150
sbsg1522
g7
(g8
g9
NtRp8151
(dp8152
g12
g1522
sg13
I1
sg14
(dp8153
sbsg1526
g7
(g8
g9
NtRp8154
(dp8155
g12
g1526
sg13
I1
sg14
(dp8156
sbsg1530
g7
(g8
g9
NtRp8157
(dp8158
g12
g1530
sg13
I1
sg14
(dp8159
sbsg1534
g7
(g8
g9
NtRp8160
(dp8161
g12
g1534
sg13
I1
sg14
(dp8162
sbsg1538
g7
(g8
g9
NtRp8163
(dp8164
g12
g1538
sg13
I1
sg14
(dp8165
sbsg1542
g7
(g8
g9
NtRp8166
(dp8167
g12
g1542
sg13
I1
sg14
(dp8168
sbsg1546
g7
(g8
g9
NtRp8169
(dp8170
g12
g1546
sg13
I3
sg14
(dp8171
sbsg1550
g7
(g8
g9
NtRp8172
(dp8173
g12
g1550
sg13
I1
sg14
(dp8174
sbsg1554
g7
(g8
g9
NtRp8175
(dp8176
g12
g1554
sg13
I2
sg14
(dp8177
sbsg1558
g7
(g8
g9
NtRp8178
(dp8179
g12
g1558
sg13
I1
sg14
(dp8180
sbsg1562
g7
(g8
g9
NtRp8181
(dp8182
g12
g1562
sg13
I1
sg14
(dp8183
sbsg1566
g7
(g8
g9
NtRp8184
(dp8185
g12
g1566
sg13
I1
sg14
(dp8186
sbsg1570
g7
(g8
g9
NtRp8187
(dp8188
g12
g1570
sg13
I1
sg14
(dp8189
sbsg1574
g7
(g8
g9
NtRp8190
(dp8191
g12
g1574
sg13
I3
sg14
(dp8192
sbsg1578
g7
(g8
g9
NtRp8193
(dp8194
g12
g1578
sg13
I1
sg14
(dp8195
sbsg1582
g7
(g8
g9
NtRp8196
(dp8197
g12
g1582
sg13
I1
sg14
(dp8198
sbsg1586
g7
(g8
g9
NtRp8199
(dp8200
g12
g1586
sg13
I1
sg14
(dp8201
sbsg1590
g7
(g8
g9
NtRp8202
(dp8203
g12
g1590
sg13
I1
sg14
(dp8204
sbsg1594
g7
(g8
g9
NtRp8205
(dp8206
g12
g1594
sg13
I1
sg14
(dp8207
sbsg1598
g7
(g8
g9
NtRp8208
(dp8209
g12
g1598
sg13
I1
sg14
(dp8210
sbsg1602
g7
(g8
g9
NtRp8211
(dp8212
g12
g1602
sg13
I1
sg14
(dp8213
sbsg1606
g7
(g8
g9
NtRp8214
(dp8215
g12
g1606
sg13
I2
sg14
(dp8216
sbsg1610
g7
(g8
g9
NtRp8217
(dp8218
g12
g1610
sg13
I2
sg14
(dp8219
sbsg1614
g7
(g8
g9
NtRp8220
(dp8221
g12
g1614
sg13
I1
sg14
(dp8222
sbsg1618
g7
(g8
g9
NtRp8223
(dp8224
g12
g1618
sg13
I2
sg14
(dp8225
sbsg1622
g7
(g8
g9
NtRp8226
(dp8227
g12
g1622
sg13
I3
sg14
(dp8228
sbsg1626
g7
(g8
g9
NtRp8229
(dp8230
g12
g1626
sg13
I2
sg14
(dp8231
sbsg1630
g7
(g8
g9
NtRp8232
(dp8233
g12
g1630
sg13
I1
sg14
(dp8234
sbsg1634
g7
(g8
g9
NtRp8235
(dp8236
g12
g1634
sg13
I21
sg14
(dp8237
sbsg1638
g7
(g8
g9
NtRp8238
(dp8239
g12
g1638
sg13
I1
sg14
(dp8240
sbsg1642
g7
(g8
g9
NtRp8241
(dp8242
g12
g1642
sg13
I1
sg14
(dp8243
sbsg1646
g7
(g8
g9
NtRp8244
(dp8245
g12
g1646
sg13
I6
sg14
(dp8246
g1650
I6
ssbsg1651
g7
(g8
g9
NtRp8247
(dp8248
g12
g1651
sg13
I1
sg14
(dp8249
sbsg1655
g7
(g8
g9
NtRp8250
(dp8251
g12
g1655
sg13
I3
sg14
(dp8252
g1659
I3
ssbsg1660
g7
(g8
g9
NtRp8253
(dp8254
g12
g1660
sg13
I1
sg14
(dp8255
sbsg1664
g7
(g8
g9
NtRp8256
(dp8257
g12
g1664
sg13
I2
sg14
(dp8258
sbsg1668
g7
(g8
g9
NtRp8259
(dp8260
g12
g1668
sg13
I1
sg14
(dp8261
sbsg1672
g7
(g8
g9
NtRp8262
(dp8263
g12
g1672
sg13
I1
sg14
(dp8264
sbsg1676
g7
(g8
g9
NtRp8265
(dp8266
g12
g1676
sg13
I1
sg14
(dp8267
sbsg1680
g7
(g8
g9
NtRp8268
(dp8269
g12
g1680
sg13
I1
sg14
(dp8270
sbsg1684
g7
(g8
g9
NtRp8271
(dp8272
g12
g1684
sg13
I1
sg14
(dp8273
sbsg1688
g7
(g8
g9
NtRp8274
(dp8275
g12
g1688
sg13
I1
sg14
(dp8276
sbsg1692
g7
(g8
g9
NtRp8277
(dp8278
g12
g1692
sg13
I1
sg14
(dp8279
sbsg1696
g7
(g8
g9
NtRp8280
(dp8281
g12
g1696
sg13
I1
sg14
(dp8282
sbsg1700
g7
(g8
g9
NtRp8283
(dp8284
g12
g1700
sg13
I1
sg14
(dp8285
sbsg1704
g7
(g8
g9
NtRp8286
(dp8287
g12
g1704
sg13
I1
sg14
(dp8288
sbsg1708
g7
(g8
g9
NtRp8289
(dp8290
g12
g1708
sg13
I2
sg14
(dp8291
sbsg1712
g7
(g8
g9
NtRp8292
(dp8293
g12
g1712
sg13
I1
sg14
(dp8294
sbsg1716
g7
(g8
g9
NtRp8295
(dp8296
g12
g1716
sg13
I1
sg14
(dp8297
sbsg1720
g7
(g8
g9
NtRp8298
(dp8299
g12
g1720
sg13
I1
sg14
(dp8300
sbsg1724
g7
(g8
g9
NtRp8301
(dp8302
g12
g1724
sg13
I1
sg14
(dp8303
sbsg1728
g7
(g8
g9
NtRp8304
(dp8305
g12
g1728
sg13
I1
sg14
(dp8306
sbsg1732
g7
(g8
g9
NtRp8307
(dp8308
g12
g1732
sg13
I1
sg14
(dp8309
sbsg1736
g7
(g8
g9
NtRp8310
(dp8311
g12
g1736
sg13
I1
sg14
(dp8312
sbsg1740
g7
(g8
g9
NtRp8313
(dp8314
g12
g1740
sg13
I1
sg14
(dp8315
sbsg1744
g7
(g8
g9
NtRp8316
(dp8317
g12
g1744
sg13
I1
sg14
(dp8318
sbsg1748
g7
(g8
g9
NtRp8319
(dp8320
g12
g1748
sg13
I1
sg14
(dp8321
sbsg1752
g7
(g8
g9
NtRp8322
(dp8323
g12
g1752
sg13
I1
sg14
(dp8324
sbsg1756
g7
(g8
g9
NtRp8325
(dp8326
g12
g1756
sg13
I1
sg14
(dp8327
sbsg1760
g7
(g8
g9
NtRp8328
(dp8329
g12
g1760
sg13
I1
sg14
(dp8330
sbsg1764
g7
(g8
g9
NtRp8331
(dp8332
g12
g1764
sg13
I1
sg14
(dp8333
sbsg1768
g7
(g8
g9
NtRp8334
(dp8335
g12
g1768
sg13
I1
sg14
(dp8336
sbsg1772
g7
(g8
g9
NtRp8337
(dp8338
g12
g1772
sg13
I1
sg14
(dp8339
sbsg1776
g7
(g8
g9
NtRp8340
(dp8341
g12
g1776
sg13
I3
sg14
(dp8342
sbsg1780
g7
(g8
g9
NtRp8343
(dp8344
g12
g1780
sg13
I4
sg14
(dp8345
g1784
I1
ssbsg1785
g7
(g8
g9
NtRp8346
(dp8347
g12
g1785
sg13
I1
sg14
(dp8348
sbsg1789
g7
(g8
g9
NtRp8349
(dp8350
g12
g1789
sg13
I1
sg14
(dp8351
sbsg1793
g7
(g8
g9
NtRp8352
(dp8353
g12
g1793
sg13
I1
sg14
(dp8354
sbsg1797
g7
(g8
g9
NtRp8355
(dp8356
g12
g1797
sg13
I1
sg14
(dp8357
sbsg1801
g7
(g8
g9
NtRp8358
(dp8359
g12
g1801
sg13
I2
sg14
(dp8360
sbsg1805
g7
(g8
g9
NtRp8361
(dp8362
g12
g1805
sg13
I4
sg14
(dp8363
sbsg1809
g7
(g8
g9
NtRp8364
(dp8365
g12
g1809
sg13
I1
sg14
(dp8366
sbsg1813
g7
(g8
g9
NtRp8367
(dp8368
g12
g1813
sg13
I2
sg14
(dp8369
sbsg1817
g7
(g8
g9
NtRp8370
(dp8371
g12
g1817
sg13
I1
sg14
(dp8372
sbsg1821
g7
(g8
g9
NtRp8373
(dp8374
g12
g1821
sg13
I1
sg14
(dp8375
sbsg1825
g7
(g8
g9
NtRp8376
(dp8377
g12
g1825
sg13
I6
sg14
(dp8378
sbsg1829
g7
(g8
g9
NtRp8379
(dp8380
g12
g1829
sg13
I1
sg14
(dp8381
sbsg1833
g7
(g8
g9
NtRp8382
(dp8383
g12
g1833
sg13
I1
sg14
(dp8384
g1837
I1
ssbsg1838
g7
(g8
g9
NtRp8385
(dp8386
g12
g1838
sg13
I1
sg14
(dp8387
sbsg1842
g7
(g8
g9
NtRp8388
(dp8389
g12
g1842
sg13
I1
sg14
(dp8390
sbsg1846
g7
(g8
g9
NtRp8391
(dp8392
g12
g1846
sg13
I1
sg14
(dp8393
sbsg1850
g7
(g8
g9
NtRp8394
(dp8395
g12
g1850
sg13
I3
sg14
(dp8396
sbsg1854
g7
(g8
g9
NtRp8397
(dp8398
g12
g1854
sg13
I2
sg14
(dp8399
sbsg1858
g7
(g8
g9
NtRp8400
(dp8401
g12
g1858
sg13
I1
sg14
(dp8402
sbsg1862
g7
(g8
g9
NtRp8403
(dp8404
g12
g1862
sg13
I1
sg14
(dp8405
sbsg1866
g7
(g8
g9
NtRp8406
(dp8407
g12
g1866
sg13
I2
sg14
(dp8408
sbsg1870
g7
(g8
g9
NtRp8409
(dp8410
g12
g1870
sg13
I1
sg14
(dp8411
g1874
I1
ssbsg1875
g7
(g8
g9
NtRp8412
(dp8413
g12
g1875
sg13
I1
sg14
(dp8414
sbsg1879
g7
(g8
g9
NtRp8415
(dp8416
g12
g1879
sg13
I2
sg14
(dp8417
sbsg1883
g7
(g8
g9
NtRp8418
(dp8419
g12
g1883
sg13
I1
sg14
(dp8420
sbsg1887
g7
(g8
g9
NtRp8421
(dp8422
g12
g1887
sg13
I1
sg14
(dp8423
sbsg1891
g7
(g8
g9
NtRp8424
(dp8425
g12
g1891
sg13
I1
sg14
(dp8426
sbsg1895
g7
(g8
g9
NtRp8427
(dp8428
g12
g1895
sg13
I2
sg14
(dp8429
sbsg1899
g7
(g8
g9
NtRp8430
(dp8431
g12
g1899
sg13
I1
sg14
(dp8432
sbsg1903
g7
(g8
g9
NtRp8433
(dp8434
g12
g1903
sg13
I1
sg14
(dp8435
sbsg1907
g7
(g8
g9
NtRp8436
(dp8437
g12
g1907
sg13
I1
sg14
(dp8438
sbsg1911
g7
(g8
g9
NtRp8439
(dp8440
g12
g1911
sg13
I2
sg14
(dp8441
sbsg1915
g7
(g8
g9
NtRp8442
(dp8443
g12
g1915
sg13
I1
sg14
(dp8444
sbsg1919
g7
(g8
g9
NtRp8445
(dp8446
g12
g1919
sg13
I1
sg14
(dp8447
sbsg1923
g7
(g8
g9
NtRp8448
(dp8449
g12
g1923
sg13
I1
sg14
(dp8450
sbsg1927
g7
(g8
g9
NtRp8451
(dp8452
g12
g1927
sg13
I1
sg14
(dp8453
sbsg1931
g7
(g8
g9
NtRp8454
(dp8455
g12
g1931
sg13
I1
sg14
(dp8456
sbsg1935
g7
(g8
g9
NtRp8457
(dp8458
g12
g1935
sg13
I2
sg14
(dp8459
sbsg1939
g7
(g8
g9
NtRp8460
(dp8461
g12
g1939
sg13
I3
sg14
(dp8462
sbsg1943
g7
(g8
g9
NtRp8463
(dp8464
g12
g1943
sg13
I6
sg14
(dp8465
sbsg1947
g7
(g8
g9
NtRp8466
(dp8467
g12
g1947
sg13
I1
sg14
(dp8468
sbsg1951
g7
(g8
g9
NtRp8469
(dp8470
g12
g1951
sg13
I1
sg14
(dp8471
sbsg1955
g7
(g8
g9
NtRp8472
(dp8473
g12
g1955
sg13
I1
sg14
(dp8474
sbsg1959
g7
(g8
g9
NtRp8475
(dp8476
g12
g1959
sg13
I1
sg14
(dp8477
sbsg1963
g7
(g8
g9
NtRp8478
(dp8479
g12
g1963
sg13
I1
sg14
(dp8480
sbsg1967
g7
(g8
g9
NtRp8481
(dp8482
g12
g1967
sg13
I8
sg14
(dp8483
sbsg1971
g7
(g8
g9
NtRp8484
(dp8485
g12
g1971
sg13
I1
sg14
(dp8486
sbsg1975
g7
(g8
g9
NtRp8487
(dp8488
g12
g1975
sg13
I3
sg14
(dp8489
sbsg1979
g7
(g8
g9
NtRp8490
(dp8491
g12
g1979
sg13
I2
sg14
(dp8492
sbsg1983
g7
(g8
g9
NtRp8493
(dp8494
g12
g1983
sg13
I3
sg14
(dp8495
g1987
I3
ssbsg1988
g7
(g8
g9
NtRp8496
(dp8497
g12
g1988
sg13
I2
sg14
(dp8498
sbsg1992
g7
(g8
g9
NtRp8499
(dp8500
g12
g1992
sg13
I1
sg14
(dp8501
sbsg1996
g7
(g8
g9
NtRp8502
(dp8503
g12
g1996
sg13
I1
sg14
(dp8504
sbsg2000
g7
(g8
g9
NtRp8505
(dp8506
g12
g2000
sg13
I3
sg14
(dp8507
sbsg2004
g7
(g8
g9
NtRp8508
(dp8509
g12
g2004
sg13
I1
sg14
(dp8510
sbsg2008
g7
(g8
g9
NtRp8511
(dp8512
g12
g2008
sg13
I6
sg14
(dp8513
sbsg2012
g7
(g8
g9
NtRp8514
(dp8515
g12
g2012
sg13
I1
sg14
(dp8516
sbsg2016
g7
(g8
g9
NtRp8517
(dp8518
g12
g2016
sg13
I4
sg14
(dp8519
sbsg2020
g7
(g8
g9
NtRp8520
(dp8521
g12
g2020
sg13
I1
sg14
(dp8522
sbsg2024
g7
(g8
g9
NtRp8523
(dp8524
g12
g2024
sg13
I1
sg14
(dp8525
sbsg2028
g7
(g8
g9
NtRp8526
(dp8527
g12
g2028
sg13
I3
sg14
(dp8528
sbsg2032
g7
(g8
g9
NtRp8529
(dp8530
g12
g2032
sg13
I1
sg14
(dp8531
g2036
I1
ssbsg2037
g7
(g8
g9
NtRp8532
(dp8533
g12
g2037
sg13
I1
sg14
(dp8534
sbsg2041
g7
(g8
g9
NtRp8535
(dp8536
g12
g2041
sg13
I2
sg14
(dp8537
g2045
I2
ssbsg2046
g7
(g8
g9
NtRp8538
(dp8539
g12
g2046
sg13
I2
sg14
(dp8540
sbsg2050
g7
(g8
g9
NtRp8541
(dp8542
g12
g2050
sg13
I1
sg14
(dp8543
sbsg2054
g7
(g8
g9
NtRp8544
(dp8545
g12
g2054
sg13
I1
sg14
(dp8546
sbsg2058
g7
(g8
g9
NtRp8547
(dp8548
g12
g2058
sg13
I1
sg14
(dp8549
sbsg2062
g7
(g8
g9
NtRp8550
(dp8551
g12
g2062
sg13
I1
sg14
(dp8552
sbsg2066
g7
(g8
g9
NtRp8553
(dp8554
g12
g2066
sg13
I1
sg14
(dp8555
sbsg2070
g7
(g8
g9
NtRp8556
(dp8557
g12
g2070
sg13
I1
sg14
(dp8558
sbsg2074
g7
(g8
g9
NtRp8559
(dp8560
g12
g2074
sg13
I1
sg14
(dp8561
sbsg2078
g7
(g8
g9
NtRp8562
(dp8563
g12
g2078
sg13
I1
sg14
(dp8564
sbsg2082
g7
(g8
g9
NtRp8565
(dp8566
g12
g2082
sg13
I1
sg14
(dp8567
sbsg2086
g7
(g8
g9
NtRp8568
(dp8569
g12
g2086
sg13
I1
sg14
(dp8570
g2090
I1
ssbsg2091
g7
(g8
g9
NtRp8571
(dp8572
g12
g2091
sg13
I2
sg14
(dp8573
sbsg2095
g7
(g8
g9
NtRp8574
(dp8575
g12
g2095
sg13
I3
sg14
(dp8576
sbsg2099
g7
(g8
g9
NtRp8577
(dp8578
g12
g2099
sg13
I1
sg14
(dp8579
sbsg2103
g7
(g8
g9
NtRp8580
(dp8581
g12
g2103
sg13
I1
sg14
(dp8582
sbsg2107
g7
(g8
g9
NtRp8583
(dp8584
g12
g2107
sg13
I2
sg14
(dp8585
sbsg2111
g7
(g8
g9
NtRp8586
(dp8587
g12
g2111
sg13
I2
sg14
(dp8588
sbsg2115
g7
(g8
g9
NtRp8589
(dp8590
g12
g2115
sg13
I1
sg14
(dp8591
sbsg2119
g7
(g8
g9
NtRp8592
(dp8593
g12
g2119
sg13
I1
sg14
(dp8594
sbsg2123
g7
(g8
g9
NtRp8595
(dp8596
g12
g2123
sg13
I1
sg14
(dp8597
sbsg2127
g7
(g8
g9
NtRp8598
(dp8599
g12
g2127
sg13
I1
sg14
(dp8600
sbsg2131
g7
(g8
g9
NtRp8601
(dp8602
g12
g2131
sg13
I1
sg14
(dp8603
sbsg2135
g7
(g8
g9
NtRp8604
(dp8605
g12
g2135
sg13
I1
sg14
(dp8606
sbsg2139
g7
(g8
g9
NtRp8607
(dp8608
g12
g2139
sg13
I1
sg14
(dp8609
sbsg2143
g7
(g8
g9
NtRp8610
(dp8611
g12
g2143
sg13
I1
sg14
(dp8612
sbsg2147
g7
(g8
g9
NtRp8613
(dp8614
g12
g2147
sg13
I1
sg14
(dp8615
sbsg2151
g7
(g8
g9
NtRp8616
(dp8617
g12
g2151
sg13
I3
sg14
(dp8618
sbsg2155
g7
(g8
g9
NtRp8619
(dp8620
g12
g2155
sg13
I1
sg14
(dp8621
sbsg2159
g7
(g8
g9
NtRp8622
(dp8623
g12
g2159
sg13
I1
sg14
(dp8624
g2163
I1
ssbsg2164
g7
(g8
g9
NtRp8625
(dp8626
g12
g2164
sg13
I1
sg14
(dp8627
sbsg2168
g7
(g8
g9
NtRp8628
(dp8629
g12
g2168
sg13
I2
sg14
(dp8630
sbsg2172
g7
(g8
g9
NtRp8631
(dp8632
g12
g2172
sg13
I1
sg14
(dp8633
sbsg2176
g7
(g8
g9
NtRp8634
(dp8635
g12
g2176
sg13
I1
sg14
(dp8636
sbssg2180
Nsg2181
I2
sg2182
I200
sg2183
Nsg2184
g2185
((lp8637
g2187
ag2188
ag2189
ag2190
ag2191
ag2192
ag2193
ag2194
ag2195
ag2196
ag2197
ag2198
ag2199
ag2200
ag2201
ag2202
ag2203
ag2204
ag2205
ag2206
ag2207
ag2208
ag2209
ag2210
ag2211
ag2212
ag2213
ag2214
ag2215
ag2216
ag2217
ag2218
ag2219
ag2220
ag2221
ag2222
ag2223
ag2224
ag2225
ag2226
ag2227
ag2228
ag2229
ag2230
atRp8638
sg2232
Nsg2233
I951
sg2234
Nsg2239
g2240
(S'\x10&\x07\r\xdf\xc5'
tRp8639
sg2242
Nsg2243
Nsbs(dp8640
I1
g7
(cstatistics.ComparisonData
ComparisonData
p8641
g9
NtRp8642
(dp8643
S'organism_comparison'
p8644
NsS'cds_comparison'
p8645
(dp8646
I4950
(lp8647
I1
aI1
asI9606
(lp8648
I0
aI0
assS'read_comparison'
p8649
(dp8650
I4950
(lp8651
I2
aI2
asI9606
(lp8652
I0
aI0
assbsI2
g7
(g8641
g9
NtRp8653
(dp8654
g8644
Nsg8645
(dp8655
I4950
(lp8656
I1
aI1
asI9606
(lp8657
I0
aI0
assg8649
(dp8658
I4950
(lp8659
I2
aI2
asI9606
(lp8660
I0
aI0
assbsI3
g7
(g8641
g9
NtRp8661
(dp8662
g8644
Nsg8645
(dp8663
I4950
(lp8664
I1
aI1
asI9606
(lp8665
I0
aI0
assg8649
(dp8666
I4950
(lp8667
I2
aI2
asI9606
(lp8668
I0
aI0
assbsI4
g7
(g8641
g9
NtRp8669
(dp8670
g8644
Nsg8645
(dp8671
I4950
(lp8672
I1
aI1
asI9606
(lp8673
I0
aI0
assg8649
(dp8674
I4950
(lp8675
I2
aI2
asI9606
(lp8676
I0
aI0
assbsI5
g7
(g8641
g9
NtRp8677
(dp8678
g8644
Nsg8645
(dp8679
I4950
(lp8680
I1
aI1
asI9606
(lp8681
I0
aI0
assg8649
(dp8682
I4950
(lp8683
I2
aI2
asI9606
(lp8684
I0
aI0
assbst.