(dp1
I1
(istatistics.SolverStatistics
StatData
p2
(dp3
S'num_alns_to_record_and_cds'
p4
(dp5
S'AP012496.1'
p6
ccopy_reg
_reconstructor
p7
(cstatistics.statistics
RecordStats
p8
c__builtin__
object
p9
NtRp10
(dp11
S'record_id'
p12
g6
sS'aln_count'
p13
I1
sS'cdss'
p14
(dp15
S'beta-lactamase'
p16
I1
ssbsS'CP002516.1'
p17
g7
(g8
g9
NtRp18
(dp19
g12
g17
sg13
I1
sg14
(dp20
sbsS'AP012306.1'
p21
g7
(g8
g9
NtRp22
(dp23
g12
g21
sg13
I1
sg14
(dp24
S'DNA helicase IV'
p25
I1
ssbsS'Z46234.1'
p26
g7
(g8
g9
NtRp27
(dp28
g12
g26
sg13
I1
sg14
(dp29
sbsS'JX283456.1'
p30
g7
(g8
g9
NtRp31
(dp32
g12
g30
sg13
I1
sg14
(dp33
S'Resolvase/integrase Bin'
p34
I1
sS'TEM betalactamase'
p35
I1
ssbsS'AM946981.2'
p36
g7
(g8
g9
NtRp37
(dp38
g12
g36
sg13
I1
sg14
(dp39
S'DNA helicase IV'
p40
I1
ssbsS'AP012030.1'
p41
g7
(g8
g9
NtRp42
(dp43
g12
g41
sg13
I1
sg14
(dp44
S'DNA helicase IV'
p45
I1
ssbsS'CP002967.1'
p46
g7
(g8
g9
NtRp47
(dp48
g12
g46
sg13
I1
sg14
(dp49
S'DNA helicase IV'
p50
I1
ssbsS'Z32524.1'
p51
g7
(g8
g9
NtRp52
(dp53
g12
g51
sg13
I1
sg14
(dp54
sbsS'AP012495.1'
p55
g7
(g8
g9
NtRp56
(dp57
g12
g55
sg13
I5
sg14
(dp58
sbsS'CP000948.1'
p59
g7
(g8
g9
NtRp60
(dp61
g12
g59
sg13
I1
sg14
(dp62
S'DNA helicase IV'
p63
I1
ssbsS'AY337720.1'
p64
g7
(g8
g9
NtRp65
(dp66
g12
g64
sg13
I1
sg14
(dp67
sbsS'U00096.2'
p68
g7
(g8
g9
NtRp69
(dp70
g12
g68
sg13
I1
sg14
(dp71
S'DNA helicase IV'
p72
I1
ssbsS'AB293446.1'
p73
g7
(g8
g9
NtRp74
(dp75
g12
g73
sg13
I1
sg14
(dp76
sbsS'CP001396.1'
p77
g7
(g8
g9
NtRp78
(dp79
g12
g77
sg13
I1
sg14
(dp80
S'DNA helicase IV'
p81
I1
ssbsS'Z35638.1'
p82
g7
(g8
g9
NtRp83
(dp84
g12
g82
sg13
I1
sg14
(dp85
sbsS'CP000819.1'
p86
g7
(g8
g9
NtRp87
(dp88
g12
g86
sg13
I1
sg14
(dp89
S'DNA helicase IV'
p90
I1
ssbsS'AB293445.1'
p91
g7
(g8
g9
NtRp92
(dp93
g12
g91
sg13
I1
sg14
(dp94
sbsS'CP002970.1'
p95
g7
(g8
g9
NtRp96
(dp97
g12
g95
sg13
I1
sg14
(dp98
sbsS'Z46232.1'
p99
g7
(g8
g9
NtRp100
(dp101
g12
g99
sg13
I1
sg14
(dp102
sbsS'AB293444.1'
p103
g7
(g8
g9
NtRp104
(dp105
g12
g103
sg13
I1
sg14
(dp106
sbsS'Z46233.1'
p107
g7
(g8
g9
NtRp108
(dp109
g12
g107
sg13
I1
sg14
(dp110
sbsS'JX424423.1'
p111
g7
(g8
g9
NtRp112
(dp113
g12
g111
sg13
I1
sg14
(dp114
S'TEM-1'
p115
I1
sS'TnpR'
p116
I1
ssbsS'Z48163.2'
p117
g7
(g8
g9
NtRp118
(dp119
g12
g117
sg13
I1
sg14
(dp120
sbsS'JX101693.1'
p121
g7
(g8
g9
NtRp122
(dp123
g12
g121
sg13
I1
sg14
(dp124
S'TEM-1 beta-lactamase'
p125
I1
ssbsS'AF503408.1'
p126
g7
(g8
g9
NtRp127
(dp128
g12
g126
sg13
I1
sg14
(dp129
S'Bla'
p130
I1
sS'Tnr'
p131
I1
ssbsS'CP000802.1'
p132
g7
(g8
g9
NtRp133
(dp134
g12
g132
sg13
I1
sg14
(dp135
S'helicase IV'
p136
I1
ssbsS'CP001665.1'
p137
g7
(g8
g9
NtRp138
(dp139
g12
g137
sg13
I1
sg14
(dp140
sbsS'FN649414.1'
p141
g7
(g8
g9
NtRp142
(dp143
g12
g141
sg13
I1
sg14
(dp144
S'helicase IV'
p145
I1
ssbsS'JX486126.1'
p146
g7
(g8
g9
NtRp147
(dp148
g12
g146
sg13
I1
sg14
(dp149
sbsS'AP009048.1'
p150
g7
(g8
g9
NtRp151
(dp152
g12
g150
sg13
I1
sg14
(dp153
S'DNA helicase IV'
p154
I1
ssbsS'J04726.1'
p155
g7
(g8
g9
NtRp156
(dp157
g12
g155
sg13
I1
sg14
(dp158
S'helicase IV'
p159
I1
ssbsS'CP001509.3'
p160
g7
(g8
g9
NtRp161
(dp162
g12
g160
sg13
I1
sg14
(dp163
S'DNA helicase IV'
p164
I1
ssbsS'U00220.1'
p165
g7
(g8
g9
NtRp166
(dp167
g12
g165
sg13
I1
sg14
(dp168
sbsS'CP000946.1'
p169
g7
(g8
g9
NtRp170
(dp171
g12
g169
sg13
I1
sg14
(dp172
sbsS'Z46231.1'
p173
g7
(g8
g9
NtRp174
(dp175
g12
g173
sg13
I1
sg14
(dp176
sbsS'CP002729.1'
p177
g7
(g8
g9
NtRp178
(dp179
g12
g177
sg13
I1
sg14
(dp180
S'UvrD/REP helicase HelD'
p181
I1
ssbsS'M19921.2'
p182
g7
(g8
g9
NtRp183
(dp184
g12
g182
sg13
I1
sg14
(dp185
sbsS'CP001637.1'
p186
g7
(g8
g9
NtRp187
(dp188
g12
g186
sg13
I1
sg14
(dp189
sbssS'num_cds_alns'
p190
NsS'num_reads_with_no_alns'
p191
I0
sS'num_reads'
p192
I2
sS'num_host_read_alns'
p193
NsS'proteins'
p194
c__builtin__
set
p195
((lp196
S'AAC74048.1'
p197
aS'AFV70407.1'
p198
aS'AFS33646.1'
p199
aS'AFQ93512.1'
p200
aS'AEE55739.1'
p201
aS'BAA35727.1'
p202
aS'BAJ42770.1'
p203
aS'BAM57522.1'
p204
aS'AFV70406.1'
p205
aS'CBJ00541.1'
p206
aS'ACB02162.1'
p207
aS'BAL38100.1'
p208
aS'CAQ31490.1'
p209
aS'ACT42861.1'
p210
aS'AAA23952.1'
p211
aS'ACR62819.1'
p212
aS'ABV05418.1'
p213
aS'AAQ07483.1'
p214
aS'AAQ07482.1'
p215
aS'AFS33645.1'
p216
aS'ACT38648.1'
p217
aS'AFH10709.1'
p218
atRp219
sS'num_cdss'
p220
NsS'num_read_alns'
p221
I43
sS'num_missing_records'
p222
(dp223
S'missing_records_percentage'
p224
S'10.26%'
p225
sS'num_all_records'
p226
I39
sg222
I4
ssS'time'
p227
NsS'taxs'
p228
NsS'num_cdss_with_no_alns'
p229
NsbsI2
(istatistics.SolverStatistics
StatData
p230
(dp231
g4
(dp232
g6
g7
(g8
g9
NtRp233
(dp234
g12
g6
sg13
I1
sg14
(dp235
g16
I1
ssbsg17
g7
(g8
g9
NtRp236
(dp237
g12
g17
sg13
I1
sg14
(dp238
sbsg21
g7
(g8
g9
NtRp239
(dp240
g12
g21
sg13
I1
sg14
(dp241
g25
I1
ssbsg26
g7
(g8
g9
NtRp242
(dp243
g12
g26
sg13
I1
sg14
(dp244
sbsg30
g7
(g8
g9
NtRp245
(dp246
g12
g30
sg13
I1
sg14
(dp247
g34
I1
sg35
I1
ssbsg36
g7
(g8
g9
NtRp248
(dp249
g12
g36
sg13
I1
sg14
(dp250
g40
I1
ssbsg41
g7
(g8
g9
NtRp251
(dp252
g12
g41
sg13
I1
sg14
(dp253
g45
I1
ssbsg46
g7
(g8
g9
NtRp254
(dp255
g12
g46
sg13
I1
sg14
(dp256
g50
I1
ssbsg51
g7
(g8
g9
NtRp257
(dp258
g12
g51
sg13
I1
sg14
(dp259
sbsg55
g7
(g8
g9
NtRp260
(dp261
g12
g55
sg13
I5
sg14
(dp262
sbsg59
g7
(g8
g9
NtRp263
(dp264
g12
g59
sg13
I1
sg14
(dp265
g63
I1
ssbsg64
g7
(g8
g9
NtRp266
(dp267
g12
g64
sg13
I1
sg14
(dp268
sbsg68
g7
(g8
g9
NtRp269
(dp270
g12
g68
sg13
I1
sg14
(dp271
g72
I1
ssbsg73
g7
(g8
g9
NtRp272
(dp273
g12
g73
sg13
I1
sg14
(dp274
sbsg77
g7
(g8
g9
NtRp275
(dp276
g12
g77
sg13
I1
sg14
(dp277
g81
I1
ssbsg82
g7
(g8
g9
NtRp278
(dp279
g12
g82
sg13
I1
sg14
(dp280
sbsg86
g7
(g8
g9
NtRp281
(dp282
g12
g86
sg13
I1
sg14
(dp283
g90
I1
ssbsg91
g7
(g8
g9
NtRp284
(dp285
g12
g91
sg13
I1
sg14
(dp286
sbsg95
g7
(g8
g9
NtRp287
(dp288
g12
g95
sg13
I1
sg14
(dp289
sbsg99
g7
(g8
g9
NtRp290
(dp291
g12
g99
sg13
I1
sg14
(dp292
sbsg103
g7
(g8
g9
NtRp293
(dp294
g12
g103
sg13
I1
sg14
(dp295
sbsg107
g7
(g8
g9
NtRp296
(dp297
g12
g107
sg13
I1
sg14
(dp298
sbsg111
g7
(g8
g9
NtRp299
(dp300
g12
g111
sg13
I1
sg14
(dp301
g115
I1
sg116
I1
ssbsg117
g7
(g8
g9
NtRp302
(dp303
g12
g117
sg13
I1
sg14
(dp304
sbsg121
g7
(g8
g9
NtRp305
(dp306
g12
g121
sg13
I1
sg14
(dp307
g125
I1
ssbsg126
g7
(g8
g9
NtRp308
(dp309
g12
g126
sg13
I1
sg14
(dp310
g130
I1
sg131
I1
ssbsg132
g7
(g8
g9
NtRp311
(dp312
g12
g132
sg13
I1
sg14
(dp313
g136
I1
ssbsg137
g7
(g8
g9
NtRp314
(dp315
g12
g137
sg13
I1
sg14
(dp316
sbsg141
g7
(g8
g9
NtRp317
(dp318
g12
g141
sg13
I1
sg14
(dp319
g145
I1
ssbsg146
g7
(g8
g9
NtRp320
(dp321
g12
g146
sg13
I1
sg14
(dp322
sbsg150
g7
(g8
g9
NtRp323
(dp324
g12
g150
sg13
I1
sg14
(dp325
g154
I1
ssbsg155
g7
(g8
g9
NtRp326
(dp327
g12
g155
sg13
I1
sg14
(dp328
g159
I1
ssbsg160
g7
(g8
g9
NtRp329
(dp330
g12
g160
sg13
I1
sg14
(dp331
g164
I1
ssbsg165
g7
(g8
g9
NtRp332
(dp333
g12
g165
sg13
I1
sg14
(dp334
sbsg169
g7
(g8
g9
NtRp335
(dp336
g12
g169
sg13
I1
sg14
(dp337
sbsg173
g7
(g8
g9
NtRp338
(dp339
g12
g173
sg13
I1
sg14
(dp340
sbsg177
g7
(g8
g9
NtRp341
(dp342
g12
g177
sg13
I1
sg14
(dp343
g181
I1
ssbsg182
g7
(g8
g9
NtRp344
(dp345
g12
g182
sg13
I1
sg14
(dp346
sbsg186
g7
(g8
g9
NtRp347
(dp348
g12
g186
sg13
I1
sg14
(dp349
sbssg190
I22
sg191
I0
sg192
I2
sg193
I0
sg194
g195
((lp350
g197
ag198
ag199
ag200
ag201
ag202
ag203
ag204
ag205
ag206
ag207
ag208
ag209
ag210
ag211
ag212
ag213
ag214
ag215
ag216
ag217
ag218
atRp351
sg220
I22
sg221
I43
sg222
Nsg227
Nsg228
Nsg229
I0
sbsI3
(istatistics.SolverStatistics
StatData
p352
(dp353
g4
(dp354
g6
g7
(g8
g9
NtRp355
(dp356
g12
g6
sg13
I1
sg14
(dp357
g16
I1
ssbsg17
g7
(g8
g9
NtRp358
(dp359
g12
g17
sg13
I1
sg14
(dp360
sbsg21
g7
(g8
g9
NtRp361
(dp362
g12
g21
sg13
I1
sg14
(dp363
g25
I1
ssbsg26
g7
(g8
g9
NtRp364
(dp365
g12
g26
sg13
I1
sg14
(dp366
sbsg30
g7
(g8
g9
NtRp367
(dp368
g12
g30
sg13
I1
sg14
(dp369
g34
I1
sg35
I1
ssbsg36
g7
(g8
g9
NtRp370
(dp371
g12
g36
sg13
I1
sg14
(dp372
g40
I1
ssbsg41
g7
(g8
g9
NtRp373
(dp374
g12
g41
sg13
I1
sg14
(dp375
g45
I1
ssbsg46
g7
(g8
g9
NtRp376
(dp377
g12
g46
sg13
I1
sg14
(dp378
g50
I1
ssbsg51
g7
(g8
g9
NtRp379
(dp380
g12
g51
sg13
I1
sg14
(dp381
sbsg55
g7
(g8
g9
NtRp382
(dp383
g12
g55
sg13
I5
sg14
(dp384
sbsg59
g7
(g8
g9
NtRp385
(dp386
g12
g59
sg13
I1
sg14
(dp387
g63
I1
ssbsg64
g7
(g8
g9
NtRp388
(dp389
g12
g64
sg13
I1
sg14
(dp390
sbsg68
g7
(g8
g9
NtRp391
(dp392
g12
g68
sg13
I1
sg14
(dp393
g72
I1
ssbsg73
g7
(g8
g9
NtRp394
(dp395
g12
g73
sg13
I1
sg14
(dp396
sbsg77
g7
(g8
g9
NtRp397
(dp398
g12
g77
sg13
I1
sg14
(dp399
g81
I1
ssbsg82
g7
(g8
g9
NtRp400
(dp401
g12
g82
sg13
I1
sg14
(dp402
sbsg86
g7
(g8
g9
NtRp403
(dp404
g12
g86
sg13
I1
sg14
(dp405
g90
I1
ssbsg91
g7
(g8
g9
NtRp406
(dp407
g12
g91
sg13
I1
sg14
(dp408
sbsg95
g7
(g8
g9
NtRp409
(dp410
g12
g95
sg13
I1
sg14
(dp411
sbsg99
g7
(g8
g9
NtRp412
(dp413
g12
g99
sg13
I1
sg14
(dp414
sbsg103
g7
(g8
g9
NtRp415
(dp416
g12
g103
sg13
I1
sg14
(dp417
sbsg107
g7
(g8
g9
NtRp418
(dp419
g12
g107
sg13
I1
sg14
(dp420
sbsg111
g7
(g8
g9
NtRp421
(dp422
g12
g111
sg13
I1
sg14
(dp423
g115
I1
sg116
I1
ssbsg117
g7
(g8
g9
NtRp424
(dp425
g12
g117
sg13
I1
sg14
(dp426
sbsg121
g7
(g8
g9
NtRp427
(dp428
g12
g121
sg13
I1
sg14
(dp429
g125
I1
ssbsg126
g7
(g8
g9
NtRp430
(dp431
g12
g126
sg13
I1
sg14
(dp432
g130
I1
sg131
I1
ssbsg132
g7
(g8
g9
NtRp433
(dp434
g12
g132
sg13
I1
sg14
(dp435
g136
I1
ssbsg137
g7
(g8
g9
NtRp436
(dp437
g12
g137
sg13
I1
sg14
(dp438
sbsg141
g7
(g8
g9
NtRp439
(dp440
g12
g141
sg13
I1
sg14
(dp441
g145
I1
ssbsg146
g7
(g8
g9
NtRp442
(dp443
g12
g146
sg13
I1
sg14
(dp444
sbsg150
g7
(g8
g9
NtRp445
(dp446
g12
g150
sg13
I1
sg14
(dp447
g154
I1
ssbsg155
g7
(g8
g9
NtRp448
(dp449
g12
g155
sg13
I1
sg14
(dp450
g159
I1
ssbsg160
g7
(g8
g9
NtRp451
(dp452
g12
g160
sg13
I1
sg14
(dp453
g164
I1
ssbsg165
g7
(g8
g9
NtRp454
(dp455
g12
g165
sg13
I1
sg14
(dp456
sbsg169
g7
(g8
g9
NtRp457
(dp458
g12
g169
sg13
I1
sg14
(dp459
sbsg173
g7
(g8
g9
NtRp460
(dp461
g12
g173
sg13
I1
sg14
(dp462
sbsg177
g7
(g8
g9
NtRp463
(dp464
g12
g177
sg13
I1
sg14
(dp465
g181
I1
ssbsg182
g7
(g8
g9
NtRp466
(dp467
g12
g182
sg13
I1
sg14
(dp468
sbsg186
g7
(g8
g9
NtRp469
(dp470
g12
g186
sg13
I1
sg14
(dp471
sbssg190
I2
sg191
I0
sg192
I2
sg193
Nsg194
g195
((lp472
g197
ag198
ag199
ag200
ag201
ag202
ag203
ag204
ag205
ag206
ag207
ag208
ag209
ag210
ag211
ag212
ag213
ag214
ag215
ag216
ag217
ag218
atRp473
sg220
I22
sg221
I43
sg222
Nsg227
Nsg228
Nsg229
I20
sbsI4
(istatistics.SolverStatistics
StatData
p474
(dp475
g4
(dp476
g6
g7
(g8
g9
NtRp477
(dp478
g12
g6
sg13
I1
sg14
(dp479
g16
I1
ssbsg17
g7
(g8
g9
NtRp480
(dp481
g12
g17
sg13
I1
sg14
(dp482
sbsg21
g7
(g8
g9
NtRp483
(dp484
g12
g21
sg13
I1
sg14
(dp485
g25
I1
ssbsg26
g7
(g8
g9
NtRp486
(dp487
g12
g26
sg13
I1
sg14
(dp488
sbsg30
g7
(g8
g9
NtRp489
(dp490
g12
g30
sg13
I1
sg14
(dp491
g34
I1
sg35
I1
ssbsg36
g7
(g8
g9
NtRp492
(dp493
g12
g36
sg13
I1
sg14
(dp494
g40
I1
ssbsg41
g7
(g8
g9
NtRp495
(dp496
g12
g41
sg13
I1
sg14
(dp497
g45
I1
ssbsg46
g7
(g8
g9
NtRp498
(dp499
g12
g46
sg13
I1
sg14
(dp500
g50
I1
ssbsg51
g7
(g8
g9
NtRp501
(dp502
g12
g51
sg13
I1
sg14
(dp503
sbsg55
g7
(g8
g9
NtRp504
(dp505
g12
g55
sg13
I5
sg14
(dp506
sbsg59
g7
(g8
g9
NtRp507
(dp508
g12
g59
sg13
I1
sg14
(dp509
g63
I1
ssbsg64
g7
(g8
g9
NtRp510
(dp511
g12
g64
sg13
I1
sg14
(dp512
sbsg68
g7
(g8
g9
NtRp513
(dp514
g12
g68
sg13
I1
sg14
(dp515
g72
I1
ssbsg73
g7
(g8
g9
NtRp516
(dp517
g12
g73
sg13
I1
sg14
(dp518
sbsg77
g7
(g8
g9
NtRp519
(dp520
g12
g77
sg13
I1
sg14
(dp521
g81
I1
ssbsg82
g7
(g8
g9
NtRp522
(dp523
g12
g82
sg13
I1
sg14
(dp524
sbsg86
g7
(g8
g9
NtRp525
(dp526
g12
g86
sg13
I1
sg14
(dp527
g90
I1
ssbsg91
g7
(g8
g9
NtRp528
(dp529
g12
g91
sg13
I1
sg14
(dp530
sbsg95
g7
(g8
g9
NtRp531
(dp532
g12
g95
sg13
I1
sg14
(dp533
sbsg99
g7
(g8
g9
NtRp534
(dp535
g12
g99
sg13
I1
sg14
(dp536
sbsg103
g7
(g8
g9
NtRp537
(dp538
g12
g103
sg13
I1
sg14
(dp539
sbsg107
g7
(g8
g9
NtRp540
(dp541
g12
g107
sg13
I1
sg14
(dp542
sbsg111
g7
(g8
g9
NtRp543
(dp544
g12
g111
sg13
I1
sg14
(dp545
g115
I1
sg116
I1
ssbsg117
g7
(g8
g9
NtRp546
(dp547
g12
g117
sg13
I1
sg14
(dp548
sbsg121
g7
(g8
g9
NtRp549
(dp550
g12
g121
sg13
I1
sg14
(dp551
g125
I1
ssbsg126
g7
(g8
g9
NtRp552
(dp553
g12
g126
sg13
I1
sg14
(dp554
g130
I1
sg131
I1
ssbsg132
g7
(g8
g9
NtRp555
(dp556
g12
g132
sg13
I1
sg14
(dp557
g136
I1
ssbsg137
g7
(g8
g9
NtRp558
(dp559
g12
g137
sg13
I1
sg14
(dp560
sbsg141
g7
(g8
g9
NtRp561
(dp562
g12
g141
sg13
I1
sg14
(dp563
g145
I1
ssbsg146
g7
(g8
g9
NtRp564
(dp565
g12
g146
sg13
I1
sg14
(dp566
sbsg150
g7
(g8
g9
NtRp567
(dp568
g12
g150
sg13
I1
sg14
(dp569
g154
I1
ssbsg155
g7
(g8
g9
NtRp570
(dp571
g12
g155
sg13
I1
sg14
(dp572
g159
I1
ssbsg160
g7
(g8
g9
NtRp573
(dp574
g12
g160
sg13
I1
sg14
(dp575
g164
I1
ssbsg165
g7
(g8
g9
NtRp576
(dp577
g12
g165
sg13
I1
sg14
(dp578
sbsg169
g7
(g8
g9
NtRp579
(dp580
g12
g169
sg13
I1
sg14
(dp581
sbsg173
g7
(g8
g9
NtRp582
(dp583
g12
g173
sg13
I1
sg14
(dp584
sbsg177
g7
(g8
g9
NtRp585
(dp586
g12
g177
sg13
I1
sg14
(dp587
g181
I1
ssbsg182
g7
(g8
g9
NtRp588
(dp589
g12
g182
sg13
I1
sg14
(dp590
sbsg186
g7
(g8
g9
NtRp591
(dp592
g12
g186
sg13
I1
sg14
(dp593
sbssg190
I2
sg191
I0
sg192
I2
sg193
Nsg194
g195
((lp594
g197
ag198
ag199
ag200
ag201
ag202
ag203
ag204
ag205
ag206
ag207
ag208
ag209
ag210
ag211
ag212
ag213
ag214
ag215
ag216
ag217
ag218
atRp595
sg220
I22
sg221
I43
sg222
Nsg227
Nsg228
Nsg229
I20
sbsI5
(istatistics.SolverStatistics
StatData
p596
(dp597
g4
(dp598
g6
g7
(g8
g9
NtRp599
(dp600
g12
g6
sg13
I1
sg14
(dp601
g16
I1
ssbsg17
g7
(g8
g9
NtRp602
(dp603
g12
g17
sg13
I1
sg14
(dp604
sbsg21
g7
(g8
g9
NtRp605
(dp606
g12
g21
sg13
I1
sg14
(dp607
g25
I1
ssbsg26
g7
(g8
g9
NtRp608
(dp609
g12
g26
sg13
I1
sg14
(dp610
sbsg30
g7
(g8
g9
NtRp611
(dp612
g12
g30
sg13
I1
sg14
(dp613
g34
I1
sg35
I1
ssbsg36
g7
(g8
g9
NtRp614
(dp615
g12
g36
sg13
I1
sg14
(dp616
g40
I1
ssbsg41
g7
(g8
g9
NtRp617
(dp618
g12
g41
sg13
I1
sg14
(dp619
g45
I1
ssbsg46
g7
(g8
g9
NtRp620
(dp621
g12
g46
sg13
I1
sg14
(dp622
g50
I1
ssbsg51
g7
(g8
g9
NtRp623
(dp624
g12
g51
sg13
I1
sg14
(dp625
sbsg55
g7
(g8
g9
NtRp626
(dp627
g12
g55
sg13
I5
sg14
(dp628
sbsg59
g7
(g8
g9
NtRp629
(dp630
g12
g59
sg13
I1
sg14
(dp631
g63
I1
ssbsg64
g7
(g8
g9
NtRp632
(dp633
g12
g64
sg13
I1
sg14
(dp634
sbsg68
g7
(g8
g9
NtRp635
(dp636
g12
g68
sg13
I1
sg14
(dp637
g72
I1
ssbsg73
g7
(g8
g9
NtRp638
(dp639
g12
g73
sg13
I1
sg14
(dp640
sbsg77
g7
(g8
g9
NtRp641
(dp642
g12
g77
sg13
I1
sg14
(dp643
g81
I1
ssbsg82
g7
(g8
g9
NtRp644
(dp645
g12
g82
sg13
I1
sg14
(dp646
sbsg86
g7
(g8
g9
NtRp647
(dp648
g12
g86
sg13
I1
sg14
(dp649
g90
I1
ssbsg91
g7
(g8
g9
NtRp650
(dp651
g12
g91
sg13
I1
sg14
(dp652
sbsg95
g7
(g8
g9
NtRp653
(dp654
g12
g95
sg13
I1
sg14
(dp655
sbsg99
g7
(g8
g9
NtRp656
(dp657
g12
g99
sg13
I1
sg14
(dp658
sbsg103
g7
(g8
g9
NtRp659
(dp660
g12
g103
sg13
I1
sg14
(dp661
sbsg107
g7
(g8
g9
NtRp662
(dp663
g12
g107
sg13
I1
sg14
(dp664
sbsg111
g7
(g8
g9
NtRp665
(dp666
g12
g111
sg13
I1
sg14
(dp667
g115
I1
sg116
I1
ssbsg117
g7
(g8
g9
NtRp668
(dp669
g12
g117
sg13
I1
sg14
(dp670
sbsg121
g7
(g8
g9
NtRp671
(dp672
g12
g121
sg13
I1
sg14
(dp673
g125
I1
ssbsg126
g7
(g8
g9
NtRp674
(dp675
g12
g126
sg13
I1
sg14
(dp676
g130
I1
sg131
I1
ssbsg132
g7
(g8
g9
NtRp677
(dp678
g12
g132
sg13
I1
sg14
(dp679
g136
I1
ssbsg137
g7
(g8
g9
NtRp680
(dp681
g12
g137
sg13
I1
sg14
(dp682
sbsg141
g7
(g8
g9
NtRp683
(dp684
g12
g141
sg13
I1
sg14
(dp685
g145
I1
ssbsg146
g7
(g8
g9
NtRp686
(dp687
g12
g146
sg13
I1
sg14
(dp688
sbsg150
g7
(g8
g9
NtRp689
(dp690
g12
g150
sg13
I1
sg14
(dp691
g154
I1
ssbsg155
g7
(g8
g9
NtRp692
(dp693
g12
g155
sg13
I1
sg14
(dp694
g159
I1
ssbsg160
g7
(g8
g9
NtRp695
(dp696
g12
g160
sg13
I1
sg14
(dp697
g164
I1
ssbsg165
g7
(g8
g9
NtRp698
(dp699
g12
g165
sg13
I1
sg14
(dp700
sbsg169
g7
(g8
g9
NtRp701
(dp702
g12
g169
sg13
I1
sg14
(dp703
sbsg173
g7
(g8
g9
NtRp704
(dp705
g12
g173
sg13
I1
sg14
(dp706
sbsg177
g7
(g8
g9
NtRp707
(dp708
g12
g177
sg13
I1
sg14
(dp709
g181
I1
ssbsg182
g7
(g8
g9
NtRp710
(dp711
g12
g182
sg13
I1
sg14
(dp712
sbsg186
g7
(g8
g9
NtRp713
(dp714
g12
g186
sg13
I1
sg14
(dp715
sbssg190
Nsg191
I0
sg192
I2
sg193
Nsg194
g195
((lp716
g197
ag198
ag199
ag200
ag201
ag202
ag203
ag204
ag205
ag206
ag207
ag208
ag209
ag210
ag211
ag212
ag213
ag214
ag215
ag216
ag217
ag218
atRp717
sg220
Nsg221
I43
sg222
Nsg227
Nsg228
Nsg229
Nsbs.